
ctarget:     file format elf64-x86-64


Disassembly of section .text:

0000000000421300 <_start>:
  421300:	31 ed                	xor    %ebp,%ebp
  421302:	49 89 d1             	mov    %rdx,%r9
  421305:	5e                   	pop    %rsi
  421306:	48 89 e2             	mov    %rsp,%rdx
  421309:	48 83 e4 f0          	and    $0xfffffffffffffff0,%rsp
  42130d:	50                   	push   %rax
  42130e:	54                   	push   %rsp
  42130f:	49 c7 c0 e0 32 42 00 	mov    $0x4232e0,%r8
  421316:	48 c7 c1 70 32 42 00 	mov    $0x423270,%rcx
  42131d:	48 c7 c7 c0 15 42 00 	mov    $0x4215c0,%rdi
  421324:	e8 c7 fb fd ff       	callq  400ef0 <__libc_start_main@plt>
  421329:	f4                   	hlt    
  42132a:	66 0f 1f 44 00 00    	nopw   0x0(%rax,%rax,1)

0000000000421330 <deregister_tm_clones>:
  421330:	b8 d7 54 62 00       	mov    $0x6254d7,%eax
  421335:	55                   	push   %rbp
  421336:	48 2d d0 54 62 00    	sub    $0x6254d0,%rax
  42133c:	48 83 f8 0e          	cmp    $0xe,%rax
  421340:	48 89 e5             	mov    %rsp,%rbp
  421343:	77 02                	ja     421347 <deregister_tm_clones+0x17>
  421345:	5d                   	pop    %rbp
  421346:	c3                   	retq   
  421347:	b8 00 00 00 00       	mov    $0x0,%eax
  42134c:	48 85 c0             	test   %rax,%rax
  42134f:	74 f4                	je     421345 <deregister_tm_clones+0x15>
  421351:	5d                   	pop    %rbp
  421352:	bf d0 54 62 00       	mov    $0x6254d0,%edi
  421357:	ff e0                	jmpq   *%rax
  421359:	0f 1f 80 00 00 00 00 	nopl   0x0(%rax)

0000000000421360 <register_tm_clones>:
  421360:	b8 d0 54 62 00       	mov    $0x6254d0,%eax
  421365:	55                   	push   %rbp
  421366:	48 2d d0 54 62 00    	sub    $0x6254d0,%rax
  42136c:	48 c1 f8 03          	sar    $0x3,%rax
  421370:	48 89 e5             	mov    %rsp,%rbp
  421373:	48 89 c2             	mov    %rax,%rdx
  421376:	48 c1 ea 3f          	shr    $0x3f,%rdx
  42137a:	48 01 d0             	add    %rdx,%rax
  42137d:	48 d1 f8             	sar    %rax
  421380:	75 02                	jne    421384 <register_tm_clones+0x24>
  421382:	5d                   	pop    %rbp
  421383:	c3                   	retq   
  421384:	ba 00 00 00 00       	mov    $0x0,%edx
  421389:	48 85 d2             	test   %rdx,%rdx
  42138c:	74 f4                	je     421382 <register_tm_clones+0x22>
  42138e:	5d                   	pop    %rbp
  42138f:	48 89 c6             	mov    %rax,%rsi
  421392:	bf d0 54 62 00       	mov    $0x6254d0,%edi
  421397:	ff e2                	jmpq   *%rdx
  421399:	0f 1f 80 00 00 00 00 	nopl   0x0(%rax)

00000000004213a0 <__do_global_dtors_aux>:
  4213a0:	80 3d 51 41 20 00 00 	cmpb   $0x0,0x204151(%rip)        # 6254f8 <completed.6345>
  4213a7:	75 11                	jne    4213ba <__do_global_dtors_aux+0x1a>
  4213a9:	55                   	push   %rbp
  4213aa:	48 89 e5             	mov    %rsp,%rbp
  4213ad:	e8 7e ff ff ff       	callq  421330 <deregister_tm_clones>
  4213b2:	5d                   	pop    %rbp
  4213b3:	c6 05 3e 41 20 00 01 	movb   $0x1,0x20413e(%rip)        # 6254f8 <completed.6345>
  4213ba:	f3 c3                	repz retq 
  4213bc:	0f 1f 40 00          	nopl   0x0(%rax)

00000000004213c0 <frame_dummy>:
  4213c0:	48 83 3d 38 3a 20 00 	cmpq   $0x0,0x203a38(%rip)        # 624e00 <__JCR_END__>
  4213c7:	00 
  4213c8:	74 1e                	je     4213e8 <frame_dummy+0x28>
  4213ca:	b8 00 00 00 00       	mov    $0x0,%eax
  4213cf:	48 85 c0             	test   %rax,%rax
  4213d2:	74 14                	je     4213e8 <frame_dummy+0x28>
  4213d4:	55                   	push   %rbp
  4213d5:	bf 00 4e 62 00       	mov    $0x624e00,%edi
  4213da:	48 89 e5             	mov    %rsp,%rbp
  4213dd:	ff d0                	callq  *%rax
  4213df:	5d                   	pop    %rbp
  4213e0:	e9 7b ff ff ff       	jmpq   421360 <register_tm_clones>
  4213e5:	0f 1f 00             	nopl   (%rax)
  4213e8:	e9 73 ff ff ff       	jmpq   421360 <register_tm_clones>
  4213ed:	0f 1f 00             	nopl   (%rax)

00000000004213f0 <usage>:
  4213f0:	48 83 ec 08          	sub    $0x8,%rsp
  4213f4:	48 89 fe             	mov    %rdi,%rsi
  4213f7:	83 3d 2a 41 20 00 00 	cmpl   $0x0,0x20412a(%rip)        # 625528 <is_checker>
  4213fe:	74 39                	je     421439 <usage+0x49>
  421400:	bf 00 33 42 00       	mov    $0x423300,%edi
  421405:	b8 00 00 00 00       	mov    $0x0,%eax
  42140a:	e8 11 fa fd ff       	callq  400e20 <printf@plt>
  42140f:	bf 38 33 42 00       	mov    $0x423338,%edi
  421414:	e8 57 fa fd ff       	callq  400e70 <puts@plt>
  421419:	bf b0 34 42 00       	mov    $0x4234b0,%edi
  42141e:	e8 4d fa fd ff       	callq  400e70 <puts@plt>
  421423:	bf 60 33 42 00       	mov    $0x423360,%edi
  421428:	e8 43 fa fd ff       	callq  400e70 <puts@plt>
  42142d:	bf ca 34 42 00       	mov    $0x4234ca,%edi
  421432:	e8 39 fa fd ff       	callq  400e70 <puts@plt>
  421437:	eb 2d                	jmp    421466 <usage+0x76>
  421439:	bf e6 34 42 00       	mov    $0x4234e6,%edi
  42143e:	b8 00 00 00 00       	mov    $0x0,%eax
  421443:	e8 d8 f9 fd ff       	callq  400e20 <printf@plt>
  421448:	bf 88 33 42 00       	mov    $0x423388,%edi
  42144d:	e8 1e fa fd ff       	callq  400e70 <puts@plt>
  421452:	bf b0 33 42 00       	mov    $0x4233b0,%edi
  421457:	e8 14 fa fd ff       	callq  400e70 <puts@plt>
  42145c:	bf 04 35 42 00       	mov    $0x423504,%edi
  421461:	e8 0a fa fd ff       	callq  400e70 <puts@plt>
  421466:	bf 00 00 00 00       	mov    $0x0,%edi
  42146b:	e8 20 fa fd ff       	callq  400e90 <exit@plt>

0000000000421470 <initialize_target>:
  421470:	55                   	push   %rbp
  421471:	53                   	push   %rbx
  421472:	48 81 ec 08 21 00 00 	sub    $0x2108,%rsp
  421479:	89 f5                	mov    %esi,%ebp
  42147b:	89 3d 97 40 20 00    	mov    %edi,0x204097(%rip)        # 625518 <check_level>
  421481:	8b 3d 01 3d 20 00    	mov    0x203d01(%rip),%edi        # 625188 <target_id>
  421487:	e8 68 1b 00 00       	callq  422ff4 <gencookie>
  42148c:	89 05 92 40 20 00    	mov    %eax,0x204092(%rip)        # 625524 <cookie>
  421492:	89 c7                	mov    %eax,%edi
  421494:	e8 5b 1b 00 00       	callq  422ff4 <gencookie>
  421499:	89 05 81 40 20 00    	mov    %eax,0x204081(%rip)        # 625520 <authkey>
  42149f:	8b 05 e3 3c 20 00    	mov    0x203ce3(%rip),%eax        # 625188 <target_id>
  4214a5:	8d 78 01             	lea    0x1(%rax),%edi
  4214a8:	e8 53 fa fd ff       	callq  400f00 <srandom@plt>
  4214ad:	e8 4e fb fd ff       	callq  401000 <random@plt>
  4214b2:	89 c7                	mov    %eax,%edi
  4214b4:	e8 cb 02 00 00       	callq  421784 <scramble>
  4214b9:	89 c3                	mov    %eax,%ebx
  4214bb:	bf 00 00 00 00       	mov    $0x0,%edi
  4214c0:	e8 9b fb fd ff       	callq  401060 <time@plt>
  4214c5:	89 c7                	mov    %eax,%edi
  4214c7:	e8 34 fa fd ff       	callq  400f00 <srandom@plt>
  4214cc:	85 ed                	test   %ebp,%ebp
  4214ce:	74 07                	je     4214d7 <initialize_target+0x67>
  4214d0:	e8 2b fb fd ff       	callq  401000 <random@plt>
  4214d5:	eb 05                	jmp    4214dc <initialize_target+0x6c>
  4214d7:	b8 00 00 00 00       	mov    $0x0,%eax
  4214dc:	01 c3                	add    %eax,%ebx
  4214de:	0f b7 db             	movzwl %bx,%ebx
  4214e1:	8d 04 dd 00 01 00 00 	lea    0x100(,%rbx,8),%eax
  4214e8:	89 c0                	mov    %eax,%eax
  4214ea:	48 89 05 cf 3f 20 00 	mov    %rax,0x203fcf(%rip)        # 6254c0 <buf_offset>
  4214f1:	c6 05 50 4c 20 00 63 	movb   $0x63,0x204c50(%rip)        # 626148 <target_prefix>
  4214f8:	83 3d c9 3f 20 00 00 	cmpl   $0x0,0x203fc9(%rip)        # 6254c8 <notify>
  4214ff:	0f 84 b1 00 00 00    	je     4215b6 <initialize_target+0x146>
  421505:	83 3d 1c 40 20 00 00 	cmpl   $0x0,0x20401c(%rip)        # 625528 <is_checker>
  42150c:	0f 85 a4 00 00 00    	jne    4215b6 <initialize_target+0x146>
  421512:	be 00 01 00 00       	mov    $0x100,%esi
  421517:	48 89 e7             	mov    %rsp,%rdi
  42151a:	e8 61 fa fd ff       	callq  400f80 <gethostname@plt>
  42151f:	85 c0                	test   %eax,%eax
  421521:	74 25                	je     421548 <initialize_target+0xd8>
  421523:	bf e0 33 42 00       	mov    $0x4233e0,%edi
  421528:	e8 43 f9 fd ff       	callq  400e70 <puts@plt>
  42152d:	bf 08 00 00 00       	mov    $0x8,%edi
  421532:	e8 59 f9 fd ff       	callq  400e90 <exit@plt>
  421537:	48 89 e6             	mov    %rsp,%rsi
  42153a:	e8 61 f9 fd ff       	callq  400ea0 <strcasecmp@plt>
  42153f:	85 c0                	test   %eax,%eax
  421541:	74 21                	je     421564 <initialize_target+0xf4>
  421543:	83 c3 01             	add    $0x1,%ebx
  421546:	eb 05                	jmp    42154d <initialize_target+0xdd>
  421548:	bb 00 00 00 00       	mov    $0x0,%ebx
  42154d:	48 63 c3             	movslq %ebx,%rax
  421550:	48 8b 3c c5 a0 51 62 	mov    0x6251a0(,%rax,8),%rdi
  421557:	00 
  421558:	48 85 ff             	test   %rdi,%rdi
  42155b:	75 da                	jne    421537 <initialize_target+0xc7>
  42155d:	b8 00 00 00 00       	mov    $0x0,%eax
  421562:	eb 05                	jmp    421569 <initialize_target+0xf9>
  421564:	b8 01 00 00 00       	mov    $0x1,%eax
  421569:	85 c0                	test   %eax,%eax
  42156b:	75 17                	jne    421584 <initialize_target+0x114>
  42156d:	48 89 e6             	mov    %rsp,%rsi
  421570:	bf 18 34 42 00       	mov    $0x423418,%edi
  421575:	e8 a6 f8 fd ff       	callq  400e20 <printf@plt>
  42157a:	bf 08 00 00 00       	mov    $0x8,%edi
  42157f:	e8 0c f9 fd ff       	callq  400e90 <exit@plt>
  421584:	48 8d bc 24 00 01 00 	lea    0x100(%rsp),%rdi
  42158b:	00 
  42158c:	e8 f7 17 00 00       	callq  422d88 <init_driver>
  421591:	85 c0                	test   %eax,%eax
  421593:	79 21                	jns    4215b6 <initialize_target+0x146>
  421595:	48 8d b4 24 00 01 00 	lea    0x100(%rsp),%rsi
  42159c:	00 
  42159d:	bf 58 34 42 00       	mov    $0x423458,%edi
  4215a2:	b8 00 00 00 00       	mov    $0x0,%eax
  4215a7:	e8 74 f8 fd ff       	callq  400e20 <printf@plt>
  4215ac:	bf 08 00 00 00       	mov    $0x8,%edi
  4215b1:	e8 da f8 fd ff       	callq  400e90 <exit@plt>
  4215b6:	48 81 c4 08 21 00 00 	add    $0x2108,%rsp
  4215bd:	5b                   	pop    %rbx
  4215be:	5d                   	pop    %rbp
  4215bf:	c3                   	retq   

00000000004215c0 <main>:
  4215c0:	41 56                	push   %r14
  4215c2:	41 55                	push   %r13
  4215c4:	41 54                	push   %r12
  4215c6:	55                   	push   %rbp
  4215c7:	53                   	push   %rbx
  4215c8:	41 89 fc             	mov    %edi,%r12d
  4215cb:	48 89 f3             	mov    %rsi,%rbx
  4215ce:	be 78 21 42 00       	mov    $0x422178,%esi
  4215d3:	bf 0b 00 00 00       	mov    $0xb,%edi
  4215d8:	e8 b3 f9 fd ff       	callq  400f90 <signal@plt>
  4215dd:	be 28 21 42 00       	mov    $0x422128,%esi
  4215e2:	bf 07 00 00 00       	mov    $0x7,%edi
  4215e7:	e8 a4 f9 fd ff       	callq  400f90 <signal@plt>
  4215ec:	be c8 21 42 00       	mov    $0x4221c8,%esi
  4215f1:	bf 04 00 00 00       	mov    $0x4,%edi
  4215f6:	e8 95 f9 fd ff       	callq  400f90 <signal@plt>
  4215fb:	83 3d 26 3f 20 00 00 	cmpl   $0x0,0x203f26(%rip)        # 625528 <is_checker>
  421602:	74 20                	je     421624 <main+0x64>
  421604:	be 18 22 42 00       	mov    $0x422218,%esi
  421609:	bf 0e 00 00 00       	mov    $0xe,%edi
  42160e:	e8 7d f9 fd ff       	callq  400f90 <signal@plt>
  421613:	bf 05 00 00 00       	mov    $0x5,%edi
  421618:	e8 93 f9 fd ff       	callq  400fb0 <alarm@plt>
  42161d:	bd 22 35 42 00       	mov    $0x423522,%ebp
  421622:	eb 05                	jmp    421629 <main+0x69>
  421624:	bd 1d 35 42 00       	mov    $0x42351d,%ebp
  421629:	48 8b 05 b0 3e 20 00 	mov    0x203eb0(%rip),%rax        # 6254e0 <stdin@@GLIBC_2.2.5>
  421630:	48 89 05 d9 3e 20 00 	mov    %rax,0x203ed9(%rip)        # 625510 <infile>
  421637:	41 bd 00 00 00 00    	mov    $0x0,%r13d
  42163d:	41 be 00 00 00 00    	mov    $0x0,%r14d
  421643:	e9 b9 00 00 00       	jmpq   421701 <main+0x141>
  421648:	83 e8 61             	sub    $0x61,%eax
  42164b:	3c 10                	cmp    $0x10,%al
  42164d:	0f 87 93 00 00 00    	ja     4216e6 <main+0x126>
  421653:	0f b6 c0             	movzbl %al,%eax
  421656:	ff 24 c5 68 35 42 00 	jmpq   *0x423568(,%rax,8)
  42165d:	48 8b 3b             	mov    (%rbx),%rdi
  421660:	e8 8b fd ff ff       	callq  4213f0 <usage>
  421665:	be 35 39 42 00       	mov    $0x423935,%esi
  42166a:	48 8b 3d 77 3e 20 00 	mov    0x203e77(%rip),%rdi        # 6254e8 <optarg@@GLIBC_2.2.5>
  421671:	e8 6a f8 fd ff       	callq  400ee0 <fopen@plt>
  421676:	48 89 05 93 3e 20 00 	mov    %rax,0x203e93(%rip)        # 625510 <infile>
  42167d:	48 85 c0             	test   %rax,%rax
  421680:	75 7f                	jne    421701 <main+0x141>
  421682:	48 8b 15 5f 3e 20 00 	mov    0x203e5f(%rip),%rdx        # 6254e8 <optarg@@GLIBC_2.2.5>
  421689:	be 2a 35 42 00       	mov    $0x42352a,%esi
  42168e:	48 8b 3d 5b 3e 20 00 	mov    0x203e5b(%rip),%rdi        # 6254f0 <stderr@@GLIBC_2.2.5>
  421695:	e8 76 f9 fd ff       	callq  401010 <fprintf@plt>
  42169a:	b8 01 00 00 00       	mov    $0x1,%eax
  42169f:	e9 d6 00 00 00       	jmpq   42177a <main+0x1ba>
  4216a4:	ba 10 00 00 00       	mov    $0x10,%edx
  4216a9:	be 00 00 00 00       	mov    $0x0,%esi
  4216ae:	48 8b 3d 33 3e 20 00 	mov    0x203e33(%rip),%rdi        # 6254e8 <optarg@@GLIBC_2.2.5>
  4216b5:	e8 76 f9 fd ff       	callq  401030 <strtoul@plt>
  4216ba:	41 89 c6             	mov    %eax,%r14d
  4216bd:	eb 42                	jmp    421701 <main+0x141>
  4216bf:	ba 0a 00 00 00       	mov    $0xa,%edx
  4216c4:	be 00 00 00 00       	mov    $0x0,%esi
  4216c9:	48 8b 3d 18 3e 20 00 	mov    0x203e18(%rip),%rdi        # 6254e8 <optarg@@GLIBC_2.2.5>
  4216d0:	e8 8b f8 fd ff       	callq  400f60 <strtol@plt>
  4216d5:	41 89 c5             	mov    %eax,%r13d
  4216d8:	eb 27                	jmp    421701 <main+0x141>
  4216da:	c7 05 e4 3d 20 00 00 	movl   $0x0,0x203de4(%rip)        # 6254c8 <notify>
  4216e1:	00 00 00 
  4216e4:	eb 1b                	jmp    421701 <main+0x141>
  4216e6:	40 0f be f6          	movsbl %sil,%esi
  4216ea:	bf 47 35 42 00       	mov    $0x423547,%edi
  4216ef:	b8 00 00 00 00       	mov    $0x0,%eax
  4216f4:	e8 27 f7 fd ff       	callq  400e20 <printf@plt>
  4216f9:	48 8b 3b             	mov    (%rbx),%rdi
  4216fc:	e8 ef fc ff ff       	callq  4213f0 <usage>
  421701:	48 89 ea             	mov    %rbp,%rdx
  421704:	48 89 de             	mov    %rbx,%rsi
  421707:	44 89 e7             	mov    %r12d,%edi
  42170a:	e8 a1 f7 fd ff       	callq  400eb0 <getopt@plt>
  42170f:	89 c6                	mov    %eax,%esi
  421711:	3c ff                	cmp    $0xff,%al
  421713:	0f 85 2f ff ff ff    	jne    421648 <main+0x88>
  421719:	be 00 00 00 00       	mov    $0x0,%esi
  42171e:	44 89 ef             	mov    %r13d,%edi
  421721:	e8 4a fd ff ff       	callq  421470 <initialize_target>
  421726:	83 3d fb 3d 20 00 00 	cmpl   $0x0,0x203dfb(%rip)        # 625528 <is_checker>
  42172d:	74 25                	je     421754 <main+0x194>
  42172f:	44 3b 35 ea 3d 20 00 	cmp    0x203dea(%rip),%r14d        # 625520 <authkey>
  421736:	74 1c                	je     421754 <main+0x194>
  421738:	44 89 f6             	mov    %r14d,%esi
  42173b:	bf 80 34 42 00       	mov    $0x423480,%edi
  421740:	b8 00 00 00 00       	mov    $0x0,%eax
  421745:	e8 d6 f6 fd ff       	callq  400e20 <printf@plt>
  42174a:	b8 00 00 00 00       	mov    $0x0,%eax
  42174f:	e8 d8 06 00 00       	callq  421e2c <check_fail>
  421754:	8b 35 ca 3d 20 00    	mov    0x203dca(%rip),%esi        # 625524 <cookie>
  42175a:	bf 5a 35 42 00       	mov    $0x42355a,%edi
  42175f:	b8 00 00 00 00       	mov    $0x0,%eax
  421764:	e8 b7 f6 fd ff       	callq  400e20 <printf@plt>
  421769:	48 8b 3d 50 3d 20 00 	mov    0x203d50(%rip),%rdi        # 6254c0 <buf_offset>
  421770:	e8 77 0b 00 00       	callq  4222ec <stable_launch>
  421775:	b8 00 00 00 00       	mov    $0x0,%eax
  42177a:	5b                   	pop    %rbx
  42177b:	5d                   	pop    %rbp
  42177c:	41 5c                	pop    %r12
  42177e:	41 5d                	pop    %r13
  421780:	41 5e                	pop    %r14
  421782:	c3                   	retq   
  421783:	90                   	nop

0000000000421784 <scramble>:
  421784:	b8 00 00 00 00       	mov    $0x0,%eax
  421789:	eb 11                	jmp    42179c <scramble+0x18>
  42178b:	69 c8 6a 07 00 00    	imul   $0x76a,%eax,%ecx
  421791:	01 f9                	add    %edi,%ecx
  421793:	89 c2                	mov    %eax,%edx
  421795:	89 4c 94 d0          	mov    %ecx,-0x30(%rsp,%rdx,4)
  421799:	83 c0 01             	add    $0x1,%eax
  42179c:	83 f8 09             	cmp    $0x9,%eax
  42179f:	76 ea                	jbe    42178b <scramble+0x7>
  4217a1:	8b 44 24 dc          	mov    -0x24(%rsp),%eax
  4217a5:	69 c0 d8 7b 00 00    	imul   $0x7bd8,%eax,%eax
  4217ab:	89 44 24 dc          	mov    %eax,-0x24(%rsp)
  4217af:	8b 44 24 d4          	mov    -0x2c(%rsp),%eax
  4217b3:	69 c0 9d 3f 00 00    	imul   $0x3f9d,%eax,%eax
  4217b9:	89 44 24 d4          	mov    %eax,-0x2c(%rsp)
  4217bd:	8b 44 24 dc          	mov    -0x24(%rsp),%eax
  4217c1:	69 c0 e8 31 00 00    	imul   $0x31e8,%eax,%eax
  4217c7:	89 44 24 dc          	mov    %eax,-0x24(%rsp)
  4217cb:	8b 44 24 f4          	mov    -0xc(%rsp),%eax
  4217cf:	69 c0 a5 55 00 00    	imul   $0x55a5,%eax,%eax
  4217d5:	89 44 24 f4          	mov    %eax,-0xc(%rsp)
  4217d9:	8b 44 24 e0          	mov    -0x20(%rsp),%eax
  4217dd:	69 c0 51 63 00 00    	imul   $0x6351,%eax,%eax
  4217e3:	89 44 24 e0          	mov    %eax,-0x20(%rsp)
  4217e7:	8b 44 24 d4          	mov    -0x2c(%rsp),%eax
  4217eb:	69 c0 37 9c 00 00    	imul   $0x9c37,%eax,%eax
  4217f1:	89 44 24 d4          	mov    %eax,-0x2c(%rsp)
  4217f5:	8b 44 24 d8          	mov    -0x28(%rsp),%eax
  4217f9:	69 c0 95 33 00 00    	imul   $0x3395,%eax,%eax
  4217ff:	89 44 24 d8          	mov    %eax,-0x28(%rsp)
  421803:	8b 44 24 dc          	mov    -0x24(%rsp),%eax
  421807:	69 c0 b3 7b 00 00    	imul   $0x7bb3,%eax,%eax
  42180d:	89 44 24 dc          	mov    %eax,-0x24(%rsp)
  421811:	8b 44 24 d4          	mov    -0x2c(%rsp),%eax
  421815:	69 c0 d6 c0 00 00    	imul   $0xc0d6,%eax,%eax
  42181b:	89 44 24 d4          	mov    %eax,-0x2c(%rsp)
  42181f:	8b 44 24 e0          	mov    -0x20(%rsp),%eax
  421823:	69 c0 55 5f 00 00    	imul   $0x5f55,%eax,%eax
  421829:	89 44 24 e0          	mov    %eax,-0x20(%rsp)
  42182d:	8b 44 24 f0          	mov    -0x10(%rsp),%eax
  421831:	69 c0 50 57 00 00    	imul   $0x5750,%eax,%eax
  421837:	89 44 24 f0          	mov    %eax,-0x10(%rsp)
  42183b:	8b 44 24 f0          	mov    -0x10(%rsp),%eax
  42183f:	69 c0 bb da 00 00    	imul   $0xdabb,%eax,%eax
  421845:	89 44 24 f0          	mov    %eax,-0x10(%rsp)
  421849:	8b 44 24 d4          	mov    -0x2c(%rsp),%eax
  42184d:	69 c0 93 28 00 00    	imul   $0x2893,%eax,%eax
  421853:	89 44 24 d4          	mov    %eax,-0x2c(%rsp)
  421857:	8b 44 24 d4          	mov    -0x2c(%rsp),%eax
  42185b:	69 c0 df 5a 00 00    	imul   $0x5adf,%eax,%eax
  421861:	89 44 24 d4          	mov    %eax,-0x2c(%rsp)
  421865:	8b 44 24 e4          	mov    -0x1c(%rsp),%eax
  421869:	69 c0 ac 02 00 00    	imul   $0x2ac,%eax,%eax
  42186f:	89 44 24 e4          	mov    %eax,-0x1c(%rsp)
  421873:	8b 44 24 e0          	mov    -0x20(%rsp),%eax
  421877:	69 c0 df 88 00 00    	imul   $0x88df,%eax,%eax
  42187d:	89 44 24 e0          	mov    %eax,-0x20(%rsp)
  421881:	8b 44 24 e8          	mov    -0x18(%rsp),%eax
  421885:	69 c0 8a 0d 00 00    	imul   $0xd8a,%eax,%eax
  42188b:	89 44 24 e8          	mov    %eax,-0x18(%rsp)
  42188f:	8b 44 24 d8          	mov    -0x28(%rsp),%eax
  421893:	69 c0 33 6a 00 00    	imul   $0x6a33,%eax,%eax
  421899:	89 44 24 d8          	mov    %eax,-0x28(%rsp)
  42189d:	8b 44 24 d0          	mov    -0x30(%rsp),%eax
  4218a1:	69 c0 3a 3a 00 00    	imul   $0x3a3a,%eax,%eax
  4218a7:	89 44 24 d0          	mov    %eax,-0x30(%rsp)
  4218ab:	8b 44 24 d4          	mov    -0x2c(%rsp),%eax
  4218af:	69 c0 60 70 00 00    	imul   $0x7060,%eax,%eax
  4218b5:	89 44 24 d4          	mov    %eax,-0x2c(%rsp)
  4218b9:	8b 44 24 dc          	mov    -0x24(%rsp),%eax
  4218bd:	69 c0 82 60 00 00    	imul   $0x6082,%eax,%eax
  4218c3:	89 44 24 dc          	mov    %eax,-0x24(%rsp)
  4218c7:	8b 44 24 f0          	mov    -0x10(%rsp),%eax
  4218cb:	69 c0 08 b7 00 00    	imul   $0xb708,%eax,%eax
  4218d1:	89 44 24 f0          	mov    %eax,-0x10(%rsp)
  4218d5:	8b 44 24 dc          	mov    -0x24(%rsp),%eax
  4218d9:	69 c0 bb 4f 00 00    	imul   $0x4fbb,%eax,%eax
  4218df:	89 44 24 dc          	mov    %eax,-0x24(%rsp)
  4218e3:	8b 44 24 e4          	mov    -0x1c(%rsp),%eax
  4218e7:	69 c0 d5 21 00 00    	imul   $0x21d5,%eax,%eax
  4218ed:	89 44 24 e4          	mov    %eax,-0x1c(%rsp)
  4218f1:	8b 44 24 d0          	mov    -0x30(%rsp),%eax
  4218f5:	69 c0 59 f2 00 00    	imul   $0xf259,%eax,%eax
  4218fb:	89 44 24 d0          	mov    %eax,-0x30(%rsp)
  4218ff:	8b 44 24 d4          	mov    -0x2c(%rsp),%eax
  421903:	69 c0 6f ef 00 00    	imul   $0xef6f,%eax,%eax
  421909:	89 44 24 d4          	mov    %eax,-0x2c(%rsp)
  42190d:	8b 44 24 ec          	mov    -0x14(%rsp),%eax
  421911:	69 c0 3a 9d 00 00    	imul   $0x9d3a,%eax,%eax
  421917:	89 44 24 ec          	mov    %eax,-0x14(%rsp)
  42191b:	8b 44 24 dc          	mov    -0x24(%rsp),%eax
  42191f:	69 c0 db 17 00 00    	imul   $0x17db,%eax,%eax
  421925:	89 44 24 dc          	mov    %eax,-0x24(%rsp)
  421929:	8b 44 24 e8          	mov    -0x18(%rsp),%eax
  42192d:	69 c0 a6 18 00 00    	imul   $0x18a6,%eax,%eax
  421933:	89 44 24 e8          	mov    %eax,-0x18(%rsp)
  421937:	8b 44 24 d0          	mov    -0x30(%rsp),%eax
  42193b:	69 c0 42 47 00 00    	imul   $0x4742,%eax,%eax
  421941:	89 44 24 d0          	mov    %eax,-0x30(%rsp)
  421945:	8b 44 24 e8          	mov    -0x18(%rsp),%eax
  421949:	69 c0 a3 c6 00 00    	imul   $0xc6a3,%eax,%eax
  42194f:	89 44 24 e8          	mov    %eax,-0x18(%rsp)
  421953:	8b 44 24 dc          	mov    -0x24(%rsp),%eax
  421957:	69 c0 d6 99 00 00    	imul   $0x99d6,%eax,%eax
  42195d:	89 44 24 dc          	mov    %eax,-0x24(%rsp)
  421961:	8b 44 24 d4          	mov    -0x2c(%rsp),%eax
  421965:	69 c0 9e 98 00 00    	imul   $0x989e,%eax,%eax
  42196b:	89 44 24 d4          	mov    %eax,-0x2c(%rsp)
  42196f:	8b 44 24 e8          	mov    -0x18(%rsp),%eax
  421973:	69 c0 a0 13 00 00    	imul   $0x13a0,%eax,%eax
  421979:	89 44 24 e8          	mov    %eax,-0x18(%rsp)
  42197d:	8b 44 24 d0          	mov    -0x30(%rsp),%eax
  421981:	69 c0 e2 c3 00 00    	imul   $0xc3e2,%eax,%eax
  421987:	89 44 24 d0          	mov    %eax,-0x30(%rsp)
  42198b:	8b 44 24 f0          	mov    -0x10(%rsp),%eax
  42198f:	69 c0 63 70 00 00    	imul   $0x7063,%eax,%eax
  421995:	89 44 24 f0          	mov    %eax,-0x10(%rsp)
  421999:	8b 44 24 d8          	mov    -0x28(%rsp),%eax
  42199d:	69 c0 97 90 00 00    	imul   $0x9097,%eax,%eax
  4219a3:	89 44 24 d8          	mov    %eax,-0x28(%rsp)
  4219a7:	8b 44 24 d4          	mov    -0x2c(%rsp),%eax
  4219ab:	69 c0 7c b8 00 00    	imul   $0xb87c,%eax,%eax
  4219b1:	89 44 24 d4          	mov    %eax,-0x2c(%rsp)
  4219b5:	8b 44 24 e0          	mov    -0x20(%rsp),%eax
  4219b9:	69 c0 27 5a 00 00    	imul   $0x5a27,%eax,%eax
  4219bf:	89 44 24 e0          	mov    %eax,-0x20(%rsp)
  4219c3:	8b 44 24 e0          	mov    -0x20(%rsp),%eax
  4219c7:	69 c0 e4 f0 00 00    	imul   $0xf0e4,%eax,%eax
  4219cd:	89 44 24 e0          	mov    %eax,-0x20(%rsp)
  4219d1:	8b 44 24 d0          	mov    -0x30(%rsp),%eax
  4219d5:	69 c0 7c 5b 00 00    	imul   $0x5b7c,%eax,%eax
  4219db:	89 44 24 d0          	mov    %eax,-0x30(%rsp)
  4219df:	8b 44 24 e4          	mov    -0x1c(%rsp),%eax
  4219e3:	69 c0 29 96 00 00    	imul   $0x9629,%eax,%eax
  4219e9:	89 44 24 e4          	mov    %eax,-0x1c(%rsp)
  4219ed:	8b 44 24 e8          	mov    -0x18(%rsp),%eax
  4219f1:	69 c0 7f aa 00 00    	imul   $0xaa7f,%eax,%eax
  4219f7:	89 44 24 e8          	mov    %eax,-0x18(%rsp)
  4219fb:	8b 44 24 ec          	mov    -0x14(%rsp),%eax
  4219ff:	69 c0 84 be 00 00    	imul   $0xbe84,%eax,%eax
  421a05:	89 44 24 ec          	mov    %eax,-0x14(%rsp)
  421a09:	8b 44 24 ec          	mov    -0x14(%rsp),%eax
  421a0d:	69 c0 be 20 00 00    	imul   $0x20be,%eax,%eax
  421a13:	89 44 24 ec          	mov    %eax,-0x14(%rsp)
  421a17:	8b 44 24 ec          	mov    -0x14(%rsp),%eax
  421a1b:	69 c0 77 de 00 00    	imul   $0xde77,%eax,%eax
  421a21:	89 44 24 ec          	mov    %eax,-0x14(%rsp)
  421a25:	8b 44 24 d4          	mov    -0x2c(%rsp),%eax
  421a29:	69 c0 e9 d5 00 00    	imul   $0xd5e9,%eax,%eax
  421a2f:	89 44 24 d4          	mov    %eax,-0x2c(%rsp)
  421a33:	8b 44 24 e4          	mov    -0x1c(%rsp),%eax
  421a37:	69 c0 8f bb 00 00    	imul   $0xbb8f,%eax,%eax
  421a3d:	89 44 24 e4          	mov    %eax,-0x1c(%rsp)
  421a41:	8b 44 24 f4          	mov    -0xc(%rsp),%eax
  421a45:	69 c0 56 7c 00 00    	imul   $0x7c56,%eax,%eax
  421a4b:	89 44 24 f4          	mov    %eax,-0xc(%rsp)
  421a4f:	8b 44 24 e8          	mov    -0x18(%rsp),%eax
  421a53:	69 c0 60 41 00 00    	imul   $0x4160,%eax,%eax
  421a59:	89 44 24 e8          	mov    %eax,-0x18(%rsp)
  421a5d:	8b 44 24 d4          	mov    -0x2c(%rsp),%eax
  421a61:	69 c0 2f 53 00 00    	imul   $0x532f,%eax,%eax
  421a67:	89 44 24 d4          	mov    %eax,-0x2c(%rsp)
  421a6b:	8b 44 24 e0          	mov    -0x20(%rsp),%eax
  421a6f:	69 c0 9d 64 00 00    	imul   $0x649d,%eax,%eax
  421a75:	89 44 24 e0          	mov    %eax,-0x20(%rsp)
  421a79:	8b 44 24 e4          	mov    -0x1c(%rsp),%eax
  421a7d:	69 c0 2f d9 00 00    	imul   $0xd92f,%eax,%eax
  421a83:	89 44 24 e4          	mov    %eax,-0x1c(%rsp)
  421a87:	8b 44 24 dc          	mov    -0x24(%rsp),%eax
  421a8b:	69 c0 19 c4 00 00    	imul   $0xc419,%eax,%eax
  421a91:	89 44 24 dc          	mov    %eax,-0x24(%rsp)
  421a95:	8b 44 24 e0          	mov    -0x20(%rsp),%eax
  421a99:	69 c0 6b f7 00 00    	imul   $0xf76b,%eax,%eax
  421a9f:	89 44 24 e0          	mov    %eax,-0x20(%rsp)
  421aa3:	8b 44 24 e8          	mov    -0x18(%rsp),%eax
  421aa7:	69 c0 d7 7f 00 00    	imul   $0x7fd7,%eax,%eax
  421aad:	89 44 24 e8          	mov    %eax,-0x18(%rsp)
  421ab1:	8b 44 24 e4          	mov    -0x1c(%rsp),%eax
  421ab5:	69 c0 52 95 00 00    	imul   $0x9552,%eax,%eax
  421abb:	89 44 24 e4          	mov    %eax,-0x1c(%rsp)
  421abf:	8b 44 24 dc          	mov    -0x24(%rsp),%eax
  421ac3:	69 c0 9f 4b 00 00    	imul   $0x4b9f,%eax,%eax
  421ac9:	89 44 24 dc          	mov    %eax,-0x24(%rsp)
  421acd:	8b 44 24 d4          	mov    -0x2c(%rsp),%eax
  421ad1:	69 c0 05 c4 00 00    	imul   $0xc405,%eax,%eax
  421ad7:	89 44 24 d4          	mov    %eax,-0x2c(%rsp)
  421adb:	8b 44 24 d0          	mov    -0x30(%rsp),%eax
  421adf:	69 c0 f6 02 00 00    	imul   $0x2f6,%eax,%eax
  421ae5:	89 44 24 d0          	mov    %eax,-0x30(%rsp)
  421ae9:	8b 44 24 f4          	mov    -0xc(%rsp),%eax
  421aed:	69 c0 ea 0f 00 00    	imul   $0xfea,%eax,%eax
  421af3:	89 44 24 f4          	mov    %eax,-0xc(%rsp)
  421af7:	8b 44 24 d4          	mov    -0x2c(%rsp),%eax
  421afb:	69 c0 25 cc 00 00    	imul   $0xcc25,%eax,%eax
  421b01:	89 44 24 d4          	mov    %eax,-0x2c(%rsp)
  421b05:	8b 44 24 d0          	mov    -0x30(%rsp),%eax
  421b09:	69 c0 ba 59 00 00    	imul   $0x59ba,%eax,%eax
  421b0f:	89 44 24 d0          	mov    %eax,-0x30(%rsp)
  421b13:	8b 44 24 e8          	mov    -0x18(%rsp),%eax
  421b17:	69 c0 5b 54 00 00    	imul   $0x545b,%eax,%eax
  421b1d:	89 44 24 e8          	mov    %eax,-0x18(%rsp)
  421b21:	8b 44 24 dc          	mov    -0x24(%rsp),%eax
  421b25:	69 c0 e3 56 00 00    	imul   $0x56e3,%eax,%eax
  421b2b:	89 44 24 dc          	mov    %eax,-0x24(%rsp)
  421b2f:	8b 44 24 d0          	mov    -0x30(%rsp),%eax
  421b33:	69 c0 49 16 00 00    	imul   $0x1649,%eax,%eax
  421b39:	89 44 24 d0          	mov    %eax,-0x30(%rsp)
  421b3d:	8b 44 24 d8          	mov    -0x28(%rsp),%eax
  421b41:	69 c0 7e 47 00 00    	imul   $0x477e,%eax,%eax
  421b47:	89 44 24 d8          	mov    %eax,-0x28(%rsp)
  421b4b:	8b 44 24 d8          	mov    -0x28(%rsp),%eax
  421b4f:	69 c0 d9 8d 00 00    	imul   $0x8dd9,%eax,%eax
  421b55:	89 44 24 d8          	mov    %eax,-0x28(%rsp)
  421b59:	8b 44 24 d8          	mov    -0x28(%rsp),%eax
  421b5d:	69 c0 ff 97 00 00    	imul   $0x97ff,%eax,%eax
  421b63:	89 44 24 d8          	mov    %eax,-0x28(%rsp)
  421b67:	8b 44 24 d4          	mov    -0x2c(%rsp),%eax
  421b6b:	69 c0 05 54 00 00    	imul   $0x5405,%eax,%eax
  421b71:	89 44 24 d4          	mov    %eax,-0x2c(%rsp)
  421b75:	8b 44 24 e0          	mov    -0x20(%rsp),%eax
  421b79:	69 c0 f0 06 00 00    	imul   $0x6f0,%eax,%eax
  421b7f:	89 44 24 e0          	mov    %eax,-0x20(%rsp)
  421b83:	8b 44 24 e0          	mov    -0x20(%rsp),%eax
  421b87:	69 c0 53 e2 00 00    	imul   $0xe253,%eax,%eax
  421b8d:	89 44 24 e0          	mov    %eax,-0x20(%rsp)
  421b91:	8b 44 24 d0          	mov    -0x30(%rsp),%eax
  421b95:	69 c0 dd e9 00 00    	imul   $0xe9dd,%eax,%eax
  421b9b:	89 44 24 d0          	mov    %eax,-0x30(%rsp)
  421b9f:	8b 44 24 ec          	mov    -0x14(%rsp),%eax
  421ba3:	69 c0 13 dc 00 00    	imul   $0xdc13,%eax,%eax
  421ba9:	89 44 24 ec          	mov    %eax,-0x14(%rsp)
  421bad:	8b 44 24 d4          	mov    -0x2c(%rsp),%eax
  421bb1:	69 c0 15 38 00 00    	imul   $0x3815,%eax,%eax
  421bb7:	89 44 24 d4          	mov    %eax,-0x2c(%rsp)
  421bbb:	8b 44 24 d0          	mov    -0x30(%rsp),%eax
  421bbf:	69 c0 a7 92 00 00    	imul   $0x92a7,%eax,%eax
  421bc5:	89 44 24 d0          	mov    %eax,-0x30(%rsp)
  421bc9:	8b 44 24 e8          	mov    -0x18(%rsp),%eax
  421bcd:	69 c0 76 c0 00 00    	imul   $0xc076,%eax,%eax
  421bd3:	89 44 24 e8          	mov    %eax,-0x18(%rsp)
  421bd7:	8b 44 24 e8          	mov    -0x18(%rsp),%eax
  421bdb:	69 c0 d3 2d 00 00    	imul   $0x2dd3,%eax,%eax
  421be1:	89 44 24 e8          	mov    %eax,-0x18(%rsp)
  421be5:	8b 44 24 e0          	mov    -0x20(%rsp),%eax
  421be9:	69 c0 81 e6 00 00    	imul   $0xe681,%eax,%eax
  421bef:	89 44 24 e0          	mov    %eax,-0x20(%rsp)
  421bf3:	ba 00 00 00 00       	mov    $0x0,%edx
  421bf8:	b8 00 00 00 00       	mov    $0x0,%eax
  421bfd:	eb 0b                	jmp    421c0a <scramble+0x486>
  421bff:	89 d1                	mov    %edx,%ecx
  421c01:	8b 4c 8c d0          	mov    -0x30(%rsp,%rcx,4),%ecx
  421c05:	01 c8                	add    %ecx,%eax
  421c07:	83 c2 01             	add    $0x1,%edx
  421c0a:	83 fa 09             	cmp    $0x9,%edx
  421c0d:	76 f0                	jbe    421bff <scramble+0x47b>
  421c0f:	f3 c3                	repz retq 
  421c11:	0f 1f 00             	nopl   (%rax)

0000000000421c14 <getbuf>:
  421c14:	48 83 ec 28          	sub    $0x28,%rsp
  421c18:	48 89 e7             	mov    %rsp,%rdi
  421c1b:	e8 3c 02 00 00       	callq  421e5c <Gets>
  421c20:	b8 01 00 00 00       	mov    $0x1,%eax
  421c25:	48 83 c4 28          	add    $0x28,%rsp
  421c29:	c3                   	retq   
  421c2a:	66 90                	xchg   %ax,%ax

0000000000421c2c <touch1>:
  421c2c:	48 83 ec 08          	sub    $0x8,%rsp
  421c30:	c7 05 e2 38 20 00 01 	movl   $0x1,0x2038e2(%rip)        # 62551c <vlevel>
  421c37:	00 00 00 
  421c3a:	bf 87 37 42 00       	mov    $0x423787,%edi
  421c3f:	e8 2c f2 fd ff       	callq  400e70 <puts@plt>
  421c44:	bf 01 00 00 00       	mov    $0x1,%edi
  421c49:	e8 fe 03 00 00       	callq  42204c <validate>
  421c4e:	bf 00 00 00 00       	mov    $0x0,%edi
  421c53:	e8 38 f2 fd ff       	callq  400e90 <exit@plt>

0000000000421c58 <touch2>:
  421c58:	48 83 ec 08          	sub    $0x8,%rsp
  421c5c:	89 fe                	mov    %edi,%esi
  421c5e:	c7 05 b4 38 20 00 02 	movl   $0x2,0x2038b4(%rip)        # 62551c <vlevel>
  421c65:	00 00 00 
  421c68:	3b 3d b6 38 20 00    	cmp    0x2038b6(%rip),%edi        # 625524 <cookie>
  421c6e:	75 1b                	jne    421c8b <touch2+0x33>
  421c70:	bf b0 37 42 00       	mov    $0x4237b0,%edi
  421c75:	b8 00 00 00 00       	mov    $0x0,%eax
  421c7a:	e8 a1 f1 fd ff       	callq  400e20 <printf@plt>
  421c7f:	bf 02 00 00 00       	mov    $0x2,%edi
  421c84:	e8 c3 03 00 00       	callq  42204c <validate>
  421c89:	eb 19                	jmp    421ca4 <touch2+0x4c>
  421c8b:	bf d8 37 42 00       	mov    $0x4237d8,%edi
  421c90:	b8 00 00 00 00       	mov    $0x0,%eax
  421c95:	e8 86 f1 fd ff       	callq  400e20 <printf@plt>
  421c9a:	bf 02 00 00 00       	mov    $0x2,%edi
  421c9f:	e8 5c 04 00 00       	callq  422100 <fail>
  421ca4:	bf 00 00 00 00       	mov    $0x0,%edi
  421ca9:	e8 e2 f1 fd ff       	callq  400e90 <exit@plt>
  421cae:	66 90                	xchg   %ax,%ax

0000000000421cb0 <hexmatch>:
  421cb0:	41 54                	push   %r12
  421cb2:	55                   	push   %rbp
  421cb3:	53                   	push   %rbx
  421cb4:	48 83 ec 70          	sub    $0x70,%rsp
  421cb8:	41 89 fc             	mov    %edi,%r12d
  421cbb:	48 89 f5             	mov    %rsi,%rbp
  421cbe:	e8 3d f3 fd ff       	callq  401000 <random@plt>
  421cc3:	48 89 c1             	mov    %rax,%rcx
  421cc6:	48 ba 0b d7 a3 70 3d 	movabs $0xa3d70a3d70a3d70b,%rdx
  421ccd:	0a d7 a3 
  421cd0:	48 f7 ea             	imul   %rdx
  421cd3:	48 8d 04 0a          	lea    (%rdx,%rcx,1),%rax
  421cd7:	48 c1 f8 06          	sar    $0x6,%rax
  421cdb:	48 89 ce             	mov    %rcx,%rsi
  421cde:	48 c1 fe 3f          	sar    $0x3f,%rsi
  421ce2:	48 29 f0             	sub    %rsi,%rax
  421ce5:	48 8d 04 80          	lea    (%rax,%rax,4),%rax
  421ce9:	48 8d 04 80          	lea    (%rax,%rax,4),%rax
  421ced:	48 c1 e0 02          	shl    $0x2,%rax
  421cf1:	48 29 c1             	sub    %rax,%rcx
  421cf4:	48 8d 1c 0c          	lea    (%rsp,%rcx,1),%rbx
  421cf8:	44 89 e2             	mov    %r12d,%edx
  421cfb:	be a4 37 42 00       	mov    $0x4237a4,%esi
  421d00:	48 89 df             	mov    %rbx,%rdi
  421d03:	b8 00 00 00 00       	mov    $0x0,%eax
  421d08:	e8 33 f2 fd ff       	callq  400f40 <sprintf@plt>
  421d0d:	ba 09 00 00 00       	mov    $0x9,%edx
  421d12:	48 89 de             	mov    %rbx,%rsi
  421d15:	48 89 ef             	mov    %rbp,%rdi
  421d18:	e8 b3 f1 fd ff       	callq  400ed0 <strncmp@plt>
  421d1d:	85 c0                	test   %eax,%eax
  421d1f:	0f 94 c0             	sete   %al
  421d22:	0f b6 c0             	movzbl %al,%eax
  421d25:	48 83 c4 70          	add    $0x70,%rsp
  421d29:	5b                   	pop    %rbx
  421d2a:	5d                   	pop    %rbp
  421d2b:	41 5c                	pop    %r12
  421d2d:	c3                   	retq   
  421d2e:	66 90                	xchg   %ax,%ax

0000000000421d30 <touch3>:
  421d30:	53                   	push   %rbx
  421d31:	48 89 fb             	mov    %rdi,%rbx
  421d34:	c7 05 de 37 20 00 03 	movl   $0x3,0x2037de(%rip)        # 62551c <vlevel>
  421d3b:	00 00 00 
  421d3e:	48 89 fe             	mov    %rdi,%rsi
  421d41:	8b 3d dd 37 20 00    	mov    0x2037dd(%rip),%edi        # 625524 <cookie>
  421d47:	e8 64 ff ff ff       	callq  421cb0 <hexmatch>
  421d4c:	85 c0                	test   %eax,%eax
  421d4e:	74 1e                	je     421d6e <touch3+0x3e>
  421d50:	48 89 de             	mov    %rbx,%rsi
  421d53:	bf 00 38 42 00       	mov    $0x423800,%edi
  421d58:	b8 00 00 00 00       	mov    $0x0,%eax
  421d5d:	e8 be f0 fd ff       	callq  400e20 <printf@plt>
  421d62:	bf 03 00 00 00       	mov    $0x3,%edi
  421d67:	e8 e0 02 00 00       	callq  42204c <validate>
  421d6c:	eb 1c                	jmp    421d8a <touch3+0x5a>
  421d6e:	48 89 de             	mov    %rbx,%rsi
  421d71:	bf 28 38 42 00       	mov    $0x423828,%edi
  421d76:	b8 00 00 00 00       	mov    $0x0,%eax
  421d7b:	e8 a0 f0 fd ff       	callq  400e20 <printf@plt>
  421d80:	bf 03 00 00 00       	mov    $0x3,%edi
  421d85:	e8 76 03 00 00       	callq  422100 <fail>
  421d8a:	bf 00 00 00 00       	mov    $0x0,%edi
  421d8f:	e8 fc f0 fd ff       	callq  400e90 <exit@plt>

0000000000421d94 <test>:
  421d94:	48 83 ec 08          	sub    $0x8,%rsp
  421d98:	b8 00 00 00 00       	mov    $0x0,%eax
  421d9d:	e8 72 fe ff ff       	callq  421c14 <getbuf>
  421da2:	89 c6                	mov    %eax,%esi
  421da4:	bf 50 38 42 00       	mov    $0x423850,%edi
  421da9:	b8 00 00 00 00       	mov    $0x0,%eax
  421dae:	e8 6d f0 fd ff       	callq  400e20 <printf@plt>
  421db3:	48 83 c4 08          	add    $0x8,%rsp
  421db7:	c3                   	retq   
  421db8:	0f 1f 84 00 00 00 00 	nopl   0x0(%rax,%rax,1)
  421dbf:	00 

0000000000421dc0 <save_char>:
  421dc0:	8b 05 7e 43 20 00    	mov    0x20437e(%rip),%eax        # 626144 <gets_cnt>
  421dc6:	3d ff 03 00 00       	cmp    $0x3ff,%eax
  421dcb:	7f 49                	jg     421e16 <save_char+0x56>
  421dcd:	8d 14 40             	lea    (%rax,%rax,2),%edx
  421dd0:	89 f9                	mov    %edi,%ecx
  421dd2:	c0 e9 04             	shr    $0x4,%cl
  421dd5:	83 e1 0f             	and    $0xf,%ecx
  421dd8:	0f b6 b1 70 3b 42 00 	movzbl 0x423b70(%rcx),%esi
  421ddf:	48 63 ca             	movslq %edx,%rcx
  421de2:	40 88 b1 40 55 62 00 	mov    %sil,0x625540(%rcx)
  421de9:	8d 4a 01             	lea    0x1(%rdx),%ecx
  421dec:	83 e7 0f             	and    $0xf,%edi
  421def:	0f b6 b7 70 3b 42 00 	movzbl 0x423b70(%rdi),%esi
  421df6:	48 63 c9             	movslq %ecx,%rcx
  421df9:	40 88 b1 40 55 62 00 	mov    %sil,0x625540(%rcx)
  421e00:	83 c2 02             	add    $0x2,%edx
  421e03:	48 63 d2             	movslq %edx,%rdx
  421e06:	c6 82 40 55 62 00 20 	movb   $0x20,0x625540(%rdx)
  421e0d:	83 c0 01             	add    $0x1,%eax
  421e10:	89 05 2e 43 20 00    	mov    %eax,0x20432e(%rip)        # 626144 <gets_cnt>
  421e16:	f3 c3                	repz retq 

0000000000421e18 <save_term>:
  421e18:	8b 05 26 43 20 00    	mov    0x204326(%rip),%eax        # 626144 <gets_cnt>
  421e1e:	8d 04 40             	lea    (%rax,%rax,2),%eax
  421e21:	48 98                	cltq   
  421e23:	c6 80 40 55 62 00 00 	movb   $0x0,0x625540(%rax)
  421e2a:	c3                   	retq   
  421e2b:	90                   	nop

0000000000421e2c <check_fail>:
  421e2c:	48 83 ec 08          	sub    $0x8,%rsp
  421e30:	0f be 35 11 43 20 00 	movsbl 0x204311(%rip),%esi        # 626148 <target_prefix>
  421e37:	b9 40 55 62 00       	mov    $0x625540,%ecx
  421e3c:	8b 15 d6 36 20 00    	mov    0x2036d6(%rip),%edx        # 625518 <check_level>
  421e42:	bf 73 38 42 00       	mov    $0x423873,%edi
  421e47:	b8 00 00 00 00       	mov    $0x0,%eax
  421e4c:	e8 cf ef fd ff       	callq  400e20 <printf@plt>
  421e51:	bf 01 00 00 00       	mov    $0x1,%edi
  421e56:	e8 35 f0 fd ff       	callq  400e90 <exit@plt>
  421e5b:	90                   	nop

0000000000421e5c <Gets>:
  421e5c:	41 54                	push   %r12
  421e5e:	55                   	push   %rbp
  421e5f:	53                   	push   %rbx
  421e60:	49 89 fc             	mov    %rdi,%r12
  421e63:	c7 05 d7 42 20 00 00 	movl   $0x0,0x2042d7(%rip)        # 626144 <gets_cnt>
  421e6a:	00 00 00 
  421e6d:	48 89 fb             	mov    %rdi,%rbx
  421e70:	eb 11                	jmp    421e83 <Gets+0x27>
  421e72:	48 8d 6b 01          	lea    0x1(%rbx),%rbp
  421e76:	88 03                	mov    %al,(%rbx)
  421e78:	0f b6 f8             	movzbl %al,%edi
  421e7b:	e8 40 ff ff ff       	callq  421dc0 <save_char>
  421e80:	48 89 eb             	mov    %rbp,%rbx
  421e83:	48 8b 3d 86 36 20 00 	mov    0x203686(%rip),%rdi        # 625510 <infile>
  421e8a:	e8 91 f0 fd ff       	callq  400f20 <_IO_getc@plt>
  421e8f:	83 f8 ff             	cmp    $0xffffffff,%eax
  421e92:	74 05                	je     421e99 <Gets+0x3d>
  421e94:	83 f8 0a             	cmp    $0xa,%eax
  421e97:	75 d9                	jne    421e72 <Gets+0x16>
  421e99:	c6 03 00             	movb   $0x0,(%rbx)
  421e9c:	b8 00 00 00 00       	mov    $0x0,%eax
  421ea1:	e8 72 ff ff ff       	callq  421e18 <save_term>
  421ea6:	4c 89 e0             	mov    %r12,%rax
  421ea9:	5b                   	pop    %rbx
  421eaa:	5d                   	pop    %rbp
  421eab:	41 5c                	pop    %r12
  421ead:	c3                   	retq   
  421eae:	66 90                	xchg   %ax,%ax

0000000000421eb0 <notify_server>:
  421eb0:	83 3d 71 36 20 00 00 	cmpl   $0x0,0x203671(%rip)        # 625528 <is_checker>
  421eb7:	0f 85 8d 01 00 00    	jne    42204a <notify_server+0x19a>
  421ebd:	53                   	push   %rbx
  421ebe:	48 81 ec 10 40 00 00 	sub    $0x4010,%rsp
  421ec5:	89 fb                	mov    %edi,%ebx
  421ec7:	8b 05 77 42 20 00    	mov    0x204277(%rip),%eax        # 626144 <gets_cnt>
  421ecd:	83 c0 64             	add    $0x64,%eax
  421ed0:	3d 00 20 00 00       	cmp    $0x2000,%eax
  421ed5:	7e 19                	jle    421ef0 <notify_server+0x40>
  421ed7:	bf a8 39 42 00       	mov    $0x4239a8,%edi
  421edc:	b8 00 00 00 00       	mov    $0x0,%eax
  421ee1:	e8 3a ef fd ff       	callq  400e20 <printf@plt>
  421ee6:	bf 01 00 00 00       	mov    $0x1,%edi
  421eeb:	e8 a0 ef fd ff       	callq  400e90 <exit@plt>
  421ef0:	44 0f be 0d 50 42 20 	movsbl 0x204250(%rip),%r9d        # 626148 <target_prefix>
  421ef7:	00 
  421ef8:	83 3d c9 35 20 00 00 	cmpl   $0x0,0x2035c9(%rip)        # 6254c8 <notify>
  421eff:	74 09                	je     421f0a <notify_server+0x5a>
  421f01:	44 8b 05 18 36 20 00 	mov    0x203618(%rip),%r8d        # 625520 <authkey>
  421f08:	eb 06                	jmp    421f10 <notify_server+0x60>
  421f0a:	41 b8 ff ff ff ff    	mov    $0xffffffff,%r8d
  421f10:	85 db                	test   %ebx,%ebx
  421f12:	74 07                	je     421f1b <notify_server+0x6b>
  421f14:	b9 89 38 42 00       	mov    $0x423889,%ecx
  421f19:	eb 05                	jmp    421f20 <notify_server+0x70>
  421f1b:	b9 8e 38 42 00       	mov    $0x42388e,%ecx
  421f20:	48 c7 44 24 08 40 55 	movq   $0x625540,0x8(%rsp)
  421f27:	62 00 
  421f29:	89 34 24             	mov    %esi,(%rsp)
  421f2c:	8b 15 56 32 20 00    	mov    0x203256(%rip),%edx        # 625188 <target_id>
  421f32:	be 93 38 42 00       	mov    $0x423893,%esi
  421f37:	48 8d bc 24 10 20 00 	lea    0x2010(%rsp),%rdi
  421f3e:	00 
  421f3f:	b8 00 00 00 00       	mov    $0x0,%eax
  421f44:	e8 f7 ef fd ff       	callq  400f40 <sprintf@plt>
  421f49:	83 3d 78 35 20 00 00 	cmpl   $0x0,0x203578(%rip)        # 6254c8 <notify>
  421f50:	74 78                	je     421fca <notify_server+0x11a>
  421f52:	4c 8d 4c 24 10       	lea    0x10(%rsp),%r9
  421f57:	41 b8 00 00 00 00    	mov    $0x0,%r8d
  421f5d:	48 8d 8c 24 10 20 00 	lea    0x2010(%rsp),%rcx
  421f64:	00 
  421f65:	48 8b 15 24 32 20 00 	mov    0x203224(%rip),%rdx        # 625190 <lab>
  421f6c:	48 8b 35 25 32 20 00 	mov    0x203225(%rip),%rsi        # 625198 <course>
  421f73:	48 8b 3d 06 32 20 00 	mov    0x203206(%rip),%rdi        # 625180 <user_id>
  421f7a:	e8 d5 0f 00 00       	callq  422f54 <driver_post>
  421f7f:	85 c0                	test   %eax,%eax
  421f81:	79 1e                	jns    421fa1 <notify_server+0xf1>
  421f83:	48 8d 74 24 10       	lea    0x10(%rsp),%rsi
  421f88:	bf af 38 42 00       	mov    $0x4238af,%edi
  421f8d:	b8 00 00 00 00       	mov    $0x0,%eax
  421f92:	e8 89 ee fd ff       	callq  400e20 <printf@plt>
  421f97:	bf 01 00 00 00       	mov    $0x1,%edi
  421f9c:	e8 ef ee fd ff       	callq  400e90 <exit@plt>
  421fa1:	85 db                	test   %ebx,%ebx
  421fa3:	74 19                	je     421fbe <notify_server+0x10e>
  421fa5:	bf d8 39 42 00       	mov    $0x4239d8,%edi
  421faa:	e8 c1 ee fd ff       	callq  400e70 <puts@plt>
  421faf:	bf bb 38 42 00       	mov    $0x4238bb,%edi
  421fb4:	e8 b7 ee fd ff       	callq  400e70 <puts@plt>
  421fb9:	e9 84 00 00 00       	jmpq   422042 <notify_server+0x192>
  421fbe:	bf c5 38 42 00       	mov    $0x4238c5,%edi
  421fc3:	e8 a8 ee fd ff       	callq  400e70 <puts@plt>
  421fc8:	eb 78                	jmp    422042 <notify_server+0x192>
  421fca:	85 db                	test   %ebx,%ebx
  421fcc:	74 07                	je     421fd5 <notify_server+0x125>
  421fce:	be 89 38 42 00       	mov    $0x423889,%esi
  421fd3:	eb 05                	jmp    421fda <notify_server+0x12a>
  421fd5:	be 8e 38 42 00       	mov    $0x42388e,%esi
  421fda:	bf 10 3a 42 00       	mov    $0x423a10,%edi
  421fdf:	b8 00 00 00 00       	mov    $0x0,%eax
  421fe4:	e8 37 ee fd ff       	callq  400e20 <printf@plt>
  421fe9:	48 8b 35 90 31 20 00 	mov    0x203190(%rip),%rsi        # 625180 <user_id>
  421ff0:	bf cc 38 42 00       	mov    $0x4238cc,%edi
  421ff5:	b8 00 00 00 00       	mov    $0x0,%eax
  421ffa:	e8 21 ee fd ff       	callq  400e20 <printf@plt>
  421fff:	48 8b 35 92 31 20 00 	mov    0x203192(%rip),%rsi        # 625198 <course>
  422006:	bf d9 38 42 00       	mov    $0x4238d9,%edi
  42200b:	b8 00 00 00 00       	mov    $0x0,%eax
  422010:	e8 0b ee fd ff       	callq  400e20 <printf@plt>
  422015:	48 8b 35 74 31 20 00 	mov    0x203174(%rip),%rsi        # 625190 <lab>
  42201c:	bf e5 38 42 00       	mov    $0x4238e5,%edi
  422021:	b8 00 00 00 00       	mov    $0x0,%eax
  422026:	e8 f5 ed fd ff       	callq  400e20 <printf@plt>
  42202b:	48 8d b4 24 10 20 00 	lea    0x2010(%rsp),%rsi
  422032:	00 
  422033:	bf ee 38 42 00       	mov    $0x4238ee,%edi
  422038:	b8 00 00 00 00       	mov    $0x0,%eax
  42203d:	e8 de ed fd ff       	callq  400e20 <printf@plt>
  422042:	48 81 c4 10 40 00 00 	add    $0x4010,%rsp
  422049:	5b                   	pop    %rbx
  42204a:	f3 c3                	repz retq 

000000000042204c <validate>:
  42204c:	53                   	push   %rbx
  42204d:	89 fb                	mov    %edi,%ebx
  42204f:	83 3d d2 34 20 00 00 	cmpl   $0x0,0x2034d2(%rip)        # 625528 <is_checker>
  422056:	74 60                	je     4220b8 <validate+0x6c>
  422058:	39 3d be 34 20 00    	cmp    %edi,0x2034be(%rip)        # 62551c <vlevel>
  42205e:	74 14                	je     422074 <validate+0x28>
  422060:	bf fa 38 42 00       	mov    $0x4238fa,%edi
  422065:	e8 06 ee fd ff       	callq  400e70 <puts@plt>
  42206a:	b8 00 00 00 00       	mov    $0x0,%eax
  42206f:	e8 b8 fd ff ff       	callq  421e2c <check_fail>
  422074:	8b 35 9e 34 20 00    	mov    0x20349e(%rip),%esi        # 625518 <check_level>
  42207a:	39 fe                	cmp    %edi,%esi
  42207c:	74 1b                	je     422099 <validate+0x4d>
  42207e:	89 fa                	mov    %edi,%edx
  422080:	bf 38 3a 42 00       	mov    $0x423a38,%edi
  422085:	b8 00 00 00 00       	mov    $0x0,%eax
  42208a:	e8 91 ed fd ff       	callq  400e20 <printf@plt>
  42208f:	b8 00 00 00 00       	mov    $0x0,%eax
  422094:	e8 93 fd ff ff       	callq  421e2c <check_fail>
  422099:	0f be 35 a8 40 20 00 	movsbl 0x2040a8(%rip),%esi        # 626148 <target_prefix>
  4220a0:	b9 40 55 62 00       	mov    $0x625540,%ecx
  4220a5:	89 fa                	mov    %edi,%edx
  4220a7:	bf 18 39 42 00       	mov    $0x423918,%edi
  4220ac:	b8 00 00 00 00       	mov    $0x0,%eax
  4220b1:	e8 6a ed fd ff       	callq  400e20 <printf@plt>
  4220b6:	eb 44                	jmp    4220fc <validate+0xb0>
  4220b8:	39 3d 5e 34 20 00    	cmp    %edi,0x20345e(%rip)        # 62551c <vlevel>
  4220be:	74 18                	je     4220d8 <validate+0x8c>
  4220c0:	bf fa 38 42 00       	mov    $0x4238fa,%edi
  4220c5:	e8 a6 ed fd ff       	callq  400e70 <puts@plt>
  4220ca:	89 de                	mov    %ebx,%esi
  4220cc:	bf 00 00 00 00       	mov    $0x0,%edi
  4220d1:	e8 da fd ff ff       	callq  421eb0 <notify_server>
  4220d6:	eb 24                	jmp    4220fc <validate+0xb0>
  4220d8:	0f be 15 69 40 20 00 	movsbl 0x204069(%rip),%edx        # 626148 <target_prefix>
  4220df:	89 fe                	mov    %edi,%esi
  4220e1:	bf 60 3a 42 00       	mov    $0x423a60,%edi
  4220e6:	b8 00 00 00 00       	mov    $0x0,%eax
  4220eb:	e8 30 ed fd ff       	callq  400e20 <printf@plt>
  4220f0:	89 de                	mov    %ebx,%esi
  4220f2:	bf 01 00 00 00       	mov    $0x1,%edi
  4220f7:	e8 b4 fd ff ff       	callq  421eb0 <notify_server>
  4220fc:	5b                   	pop    %rbx
  4220fd:	c3                   	retq   
  4220fe:	66 90                	xchg   %ax,%ax

0000000000422100 <fail>:
  422100:	48 83 ec 08          	sub    $0x8,%rsp
  422104:	83 3d 1d 34 20 00 00 	cmpl   $0x0,0x20341d(%rip)        # 625528 <is_checker>
  42210b:	74 0a                	je     422117 <fail+0x17>
  42210d:	b8 00 00 00 00       	mov    $0x0,%eax
  422112:	e8 15 fd ff ff       	callq  421e2c <check_fail>
  422117:	89 fe                	mov    %edi,%esi
  422119:	bf 00 00 00 00       	mov    $0x0,%edi
  42211e:	e8 8d fd ff ff       	callq  421eb0 <notify_server>
  422123:	48 83 c4 08          	add    $0x8,%rsp
  422127:	c3                   	retq   

0000000000422128 <bushandler>:
  422128:	48 83 ec 08          	sub    $0x8,%rsp
  42212c:	83 3d f5 33 20 00 00 	cmpl   $0x0,0x2033f5(%rip)        # 625528 <is_checker>
  422133:	74 14                	je     422149 <bushandler+0x21>
  422135:	bf 2d 39 42 00       	mov    $0x42392d,%edi
  42213a:	e8 31 ed fd ff       	callq  400e70 <puts@plt>
  42213f:	b8 00 00 00 00       	mov    $0x0,%eax
  422144:	e8 e3 fc ff ff       	callq  421e2c <check_fail>
  422149:	bf 98 3a 42 00       	mov    $0x423a98,%edi
  42214e:	e8 1d ed fd ff       	callq  400e70 <puts@plt>
  422153:	bf 37 39 42 00       	mov    $0x423937,%edi
  422158:	e8 13 ed fd ff       	callq  400e70 <puts@plt>
  42215d:	be 00 00 00 00       	mov    $0x0,%esi
  422162:	bf 00 00 00 00       	mov    $0x0,%edi
  422167:	e8 44 fd ff ff       	callq  421eb0 <notify_server>
  42216c:	bf 01 00 00 00       	mov    $0x1,%edi
  422171:	e8 1a ed fd ff       	callq  400e90 <exit@plt>
  422176:	66 90                	xchg   %ax,%ax

0000000000422178 <seghandler>:
  422178:	48 83 ec 08          	sub    $0x8,%rsp
  42217c:	83 3d a5 33 20 00 00 	cmpl   $0x0,0x2033a5(%rip)        # 625528 <is_checker>
  422183:	74 14                	je     422199 <seghandler+0x21>
  422185:	bf 4d 39 42 00       	mov    $0x42394d,%edi
  42218a:	e8 e1 ec fd ff       	callq  400e70 <puts@plt>
  42218f:	b8 00 00 00 00       	mov    $0x0,%eax
  422194:	e8 93 fc ff ff       	callq  421e2c <check_fail>
  422199:	bf b8 3a 42 00       	mov    $0x423ab8,%edi
  42219e:	e8 cd ec fd ff       	callq  400e70 <puts@plt>
  4221a3:	bf 37 39 42 00       	mov    $0x423937,%edi
  4221a8:	e8 c3 ec fd ff       	callq  400e70 <puts@plt>
  4221ad:	be 00 00 00 00       	mov    $0x0,%esi
  4221b2:	bf 00 00 00 00       	mov    $0x0,%edi
  4221b7:	e8 f4 fc ff ff       	callq  421eb0 <notify_server>
  4221bc:	bf 01 00 00 00       	mov    $0x1,%edi
  4221c1:	e8 ca ec fd ff       	callq  400e90 <exit@plt>
  4221c6:	66 90                	xchg   %ax,%ax

00000000004221c8 <illegalhandler>:
  4221c8:	48 83 ec 08          	sub    $0x8,%rsp
  4221cc:	83 3d 55 33 20 00 00 	cmpl   $0x0,0x203355(%rip)        # 625528 <is_checker>
  4221d3:	74 14                	je     4221e9 <illegalhandler+0x21>
  4221d5:	bf 60 39 42 00       	mov    $0x423960,%edi
  4221da:	e8 91 ec fd ff       	callq  400e70 <puts@plt>
  4221df:	b8 00 00 00 00       	mov    $0x0,%eax
  4221e4:	e8 43 fc ff ff       	callq  421e2c <check_fail>
  4221e9:	bf e0 3a 42 00       	mov    $0x423ae0,%edi
  4221ee:	e8 7d ec fd ff       	callq  400e70 <puts@plt>
  4221f3:	bf 37 39 42 00       	mov    $0x423937,%edi
  4221f8:	e8 73 ec fd ff       	callq  400e70 <puts@plt>
  4221fd:	be 00 00 00 00       	mov    $0x0,%esi
  422202:	bf 00 00 00 00       	mov    $0x0,%edi
  422207:	e8 a4 fc ff ff       	callq  421eb0 <notify_server>
  42220c:	bf 01 00 00 00       	mov    $0x1,%edi
  422211:	e8 7a ec fd ff       	callq  400e90 <exit@plt>
  422216:	66 90                	xchg   %ax,%ax

0000000000422218 <sigalrmhandler>:
  422218:	48 83 ec 08          	sub    $0x8,%rsp
  42221c:	83 3d 05 33 20 00 00 	cmpl   $0x0,0x203305(%rip)        # 625528 <is_checker>
  422223:	74 14                	je     422239 <sigalrmhandler+0x21>
  422225:	bf 74 39 42 00       	mov    $0x423974,%edi
  42222a:	e8 41 ec fd ff       	callq  400e70 <puts@plt>
  42222f:	b8 00 00 00 00       	mov    $0x0,%eax
  422234:	e8 f3 fb ff ff       	callq  421e2c <check_fail>
  422239:	be 05 00 00 00       	mov    $0x5,%esi
  42223e:	bf 10 3b 42 00       	mov    $0x423b10,%edi
  422243:	b8 00 00 00 00       	mov    $0x0,%eax
  422248:	e8 d3 eb fd ff       	callq  400e20 <printf@plt>
  42224d:	be 00 00 00 00       	mov    $0x0,%esi
  422252:	bf 00 00 00 00       	mov    $0x0,%edi
  422257:	e8 54 fc ff ff       	callq  421eb0 <notify_server>
  42225c:	bf 01 00 00 00       	mov    $0x1,%edi
  422261:	e8 2a ec fd ff       	callq  400e90 <exit@plt>
  422266:	66 90                	xchg   %ax,%ax

0000000000422268 <launch>:
  422268:	55                   	push   %rbp
  422269:	48 89 e5             	mov    %rsp,%rbp
  42226c:	48 89 fa             	mov    %rdi,%rdx
  42226f:	48 8d 47 1e          	lea    0x1e(%rdi),%rax
  422273:	48 83 e0 f0          	and    $0xfffffffffffffff0,%rax
  422277:	48 29 c4             	sub    %rax,%rsp
  42227a:	48 8d 7c 24 0f       	lea    0xf(%rsp),%rdi
  42227f:	48 83 e7 f0          	and    $0xfffffffffffffff0,%rdi
  422283:	be f4 00 00 00       	mov    $0xf4,%esi
  422288:	e8 a3 eb fd ff       	callq  400e30 <memset@plt>
  42228d:	48 8b 05 4c 32 20 00 	mov    0x20324c(%rip),%rax        # 6254e0 <stdin@@GLIBC_2.2.5>
  422294:	48 39 05 75 32 20 00 	cmp    %rax,0x203275(%rip)        # 625510 <infile>
  42229b:	75 0f                	jne    4222ac <launch+0x44>
  42229d:	bf 7c 39 42 00       	mov    $0x42397c,%edi
  4222a2:	b8 00 00 00 00       	mov    $0x0,%eax
  4222a7:	e8 74 eb fd ff       	callq  400e20 <printf@plt>
  4222ac:	c7 05 66 32 20 00 00 	movl   $0x0,0x203266(%rip)        # 62551c <vlevel>
  4222b3:	00 00 00 
  4222b6:	b8 00 00 00 00       	mov    $0x0,%eax
  4222bb:	e8 d4 fa ff ff       	callq  421d94 <test>
  4222c0:	83 3d 61 32 20 00 00 	cmpl   $0x0,0x203261(%rip)        # 625528 <is_checker>
  4222c7:	74 14                	je     4222dd <launch+0x75>
  4222c9:	bf 89 39 42 00       	mov    $0x423989,%edi
  4222ce:	e8 9d eb fd ff       	callq  400e70 <puts@plt>
  4222d3:	b8 00 00 00 00       	mov    $0x0,%eax
  4222d8:	e8 4f fb ff ff       	callq  421e2c <check_fail>
  4222dd:	bf 94 39 42 00       	mov    $0x423994,%edi
  4222e2:	e8 89 eb fd ff       	callq  400e70 <puts@plt>
  4222e7:	c9                   	leaveq 
  4222e8:	c3                   	retq   
  4222e9:	0f 1f 00             	nopl   (%rax)

00000000004222ec <stable_launch>:
  4222ec:	53                   	push   %rbx
  4222ed:	48 89 3d 14 32 20 00 	mov    %rdi,0x203214(%rip)        # 625508 <global_offset>
  4222f4:	41 b9 00 00 00 00    	mov    $0x0,%r9d
  4222fa:	41 b8 00 00 00 00    	mov    $0x0,%r8d
  422300:	b9 32 01 00 00       	mov    $0x132,%ecx
  422305:	ba 07 00 00 00       	mov    $0x7,%edx
  42230a:	be 00 00 10 00       	mov    $0x100000,%esi
  42230f:	bf 00 60 58 55       	mov    $0x55586000,%edi
  422314:	e8 37 ed fd ff       	callq  401050 <mmap@plt>
  422319:	48 89 c3             	mov    %rax,%rbx
  42231c:	48 3d 00 60 58 55    	cmp    $0x55586000,%rax
  422322:	74 32                	je     422356 <stable_launch+0x6a>
  422324:	be 00 00 10 00       	mov    $0x100000,%esi
  422329:	48 89 c7             	mov    %rax,%rdi
  42232c:	e8 bf ec fd ff       	callq  400ff0 <munmap@plt>
  422331:	ba 00 60 58 55       	mov    $0x55586000,%edx
  422336:	be 48 3b 42 00       	mov    $0x423b48,%esi
  42233b:	48 8b 3d ae 31 20 00 	mov    0x2031ae(%rip),%rdi        # 6254f0 <stderr@@GLIBC_2.2.5>
  422342:	b8 00 00 00 00       	mov    $0x0,%eax
  422347:	e8 c4 ec fd ff       	callq  401010 <fprintf@plt>
  42234c:	bf 01 00 00 00       	mov    $0x1,%edi
  422351:	e8 3a eb fd ff       	callq  400e90 <exit@plt>
  422356:	48 8d 90 f8 ff 0f 00 	lea    0xffff8(%rax),%rdx
  42235d:	48 89 15 ec 3d 20 00 	mov    %rdx,0x203dec(%rip)        # 626150 <stack_top>
  422364:	48 89 e0             	mov    %rsp,%rax
  422367:	48 89 d4             	mov    %rdx,%rsp
  42236a:	48 89 c2             	mov    %rax,%rdx
  42236d:	48 89 15 8c 31 20 00 	mov    %rdx,0x20318c(%rip)        # 625500 <global_save_stack>
  422374:	48 8b 3d 8d 31 20 00 	mov    0x20318d(%rip),%rdi        # 625508 <global_offset>
  42237b:	e8 e8 fe ff ff       	callq  422268 <launch>
  422380:	48 8b 05 79 31 20 00 	mov    0x203179(%rip),%rax        # 625500 <global_save_stack>
  422387:	48 89 c4             	mov    %rax,%rsp
  42238a:	be 00 00 10 00       	mov    $0x100000,%esi
  42238f:	48 89 df             	mov    %rbx,%rdi
  422392:	e8 59 ec fd ff       	callq  400ff0 <munmap@plt>
  422397:	5b                   	pop    %rbx
  422398:	c3                   	retq   
  422399:	0f 1f 80 00 00 00 00 	nopl   0x0(%rax)

00000000004223a0 <rio_readinitb>:
  4223a0:	89 37                	mov    %esi,(%rdi)
  4223a2:	c7 47 04 00 00 00 00 	movl   $0x0,0x4(%rdi)
  4223a9:	48 8d 47 10          	lea    0x10(%rdi),%rax
  4223ad:	48 89 47 08          	mov    %rax,0x8(%rdi)
  4223b1:	c3                   	retq   
  4223b2:	66 90                	xchg   %ax,%ax

00000000004223b4 <sigalrm_handler>:
  4223b4:	48 83 ec 08          	sub    $0x8,%rsp
  4223b8:	ba 00 00 00 00       	mov    $0x0,%edx
  4223bd:	be 80 3b 42 00       	mov    $0x423b80,%esi
  4223c2:	48 8b 3d 27 31 20 00 	mov    0x203127(%rip),%rdi        # 6254f0 <stderr@@GLIBC_2.2.5>
  4223c9:	b8 00 00 00 00       	mov    $0x0,%eax
  4223ce:	e8 3d ec fd ff       	callq  401010 <fprintf@plt>
  4223d3:	bf 01 00 00 00       	mov    $0x1,%edi
  4223d8:	e8 b3 ea fd ff       	callq  400e90 <exit@plt>
  4223dd:	0f 1f 00             	nopl   (%rax)

00000000004223e0 <urlencode>:
  4223e0:	41 54                	push   %r12
  4223e2:	55                   	push   %rbp
  4223e3:	53                   	push   %rbx
  4223e4:	48 83 ec 10          	sub    $0x10,%rsp
  4223e8:	48 89 fb             	mov    %rdi,%rbx
  4223eb:	48 89 f5             	mov    %rsi,%rbp
  4223ee:	b8 00 00 00 00       	mov    $0x0,%eax
  4223f3:	48 c7 c1 ff ff ff ff 	mov    $0xffffffffffffffff,%rcx
  4223fa:	f2 ae                	repnz scas %es:(%rdi),%al
  4223fc:	48 f7 d1             	not    %rcx
  4223ff:	8d 41 ff             	lea    -0x1(%rcx),%eax
  422402:	e9 93 00 00 00       	jmpq   42249a <urlencode+0xba>
  422407:	0f b6 13             	movzbl (%rbx),%edx
  42240a:	80 fa 2a             	cmp    $0x2a,%dl
  42240d:	0f 94 c1             	sete   %cl
  422410:	80 fa 2d             	cmp    $0x2d,%dl
  422413:	0f 94 c0             	sete   %al
  422416:	08 c1                	or     %al,%cl
  422418:	75 1f                	jne    422439 <urlencode+0x59>
  42241a:	80 fa 2e             	cmp    $0x2e,%dl
  42241d:	74 1a                	je     422439 <urlencode+0x59>
  42241f:	80 fa 5f             	cmp    $0x5f,%dl
  422422:	74 15                	je     422439 <urlencode+0x59>
  422424:	8d 42 d0             	lea    -0x30(%rdx),%eax
  422427:	3c 09                	cmp    $0x9,%al
  422429:	76 0e                	jbe    422439 <urlencode+0x59>
  42242b:	8d 42 bf             	lea    -0x41(%rdx),%eax
  42242e:	3c 19                	cmp    $0x19,%al
  422430:	76 07                	jbe    422439 <urlencode+0x59>
  422432:	8d 42 9f             	lea    -0x61(%rdx),%eax
  422435:	3c 19                	cmp    $0x19,%al
  422437:	77 09                	ja     422442 <urlencode+0x62>
  422439:	88 55 00             	mov    %dl,0x0(%rbp)
  42243c:	48 8d 6d 01          	lea    0x1(%rbp),%rbp
  422440:	eb 51                	jmp    422493 <urlencode+0xb3>
  422442:	80 fa 20             	cmp    $0x20,%dl
  422445:	75 0a                	jne    422451 <urlencode+0x71>
  422447:	c6 45 00 2b          	movb   $0x2b,0x0(%rbp)
  42244b:	48 8d 6d 01          	lea    0x1(%rbp),%rbp
  42244f:	eb 42                	jmp    422493 <urlencode+0xb3>
  422451:	8d 42 e0             	lea    -0x20(%rdx),%eax
  422454:	3c 5f                	cmp    $0x5f,%al
  422456:	0f 96 c1             	setbe  %cl
  422459:	80 fa 09             	cmp    $0x9,%dl
  42245c:	0f 94 c0             	sete   %al
  42245f:	08 c1                	or     %al,%cl
  422461:	74 45                	je     4224a8 <urlencode+0xc8>
  422463:	0f b6 d2             	movzbl %dl,%edx
  422466:	be 35 3c 42 00       	mov    $0x423c35,%esi
  42246b:	48 89 e7             	mov    %rsp,%rdi
  42246e:	b8 00 00 00 00       	mov    $0x0,%eax
  422473:	e8 c8 ea fd ff       	callq  400f40 <sprintf@plt>
  422478:	0f b6 04 24          	movzbl (%rsp),%eax
  42247c:	88 45 00             	mov    %al,0x0(%rbp)
  42247f:	0f b6 44 24 01       	movzbl 0x1(%rsp),%eax
  422484:	88 45 01             	mov    %al,0x1(%rbp)
  422487:	0f b6 44 24 02       	movzbl 0x2(%rsp),%eax
  42248c:	88 45 02             	mov    %al,0x2(%rbp)
  42248f:	48 8d 6d 03          	lea    0x3(%rbp),%rbp
  422493:	48 83 c3 01          	add    $0x1,%rbx
  422497:	44 89 e0             	mov    %r12d,%eax
  42249a:	44 8d 60 ff          	lea    -0x1(%rax),%r12d
  42249e:	85 c0                	test   %eax,%eax
  4224a0:	0f 85 61 ff ff ff    	jne    422407 <urlencode+0x27>
  4224a6:	eb 05                	jmp    4224ad <urlencode+0xcd>
  4224a8:	b8 ff ff ff ff       	mov    $0xffffffff,%eax
  4224ad:	48 83 c4 10          	add    $0x10,%rsp
  4224b1:	5b                   	pop    %rbx
  4224b2:	5d                   	pop    %rbp
  4224b3:	41 5c                	pop    %r12
  4224b5:	c3                   	retq   
  4224b6:	66 90                	xchg   %ax,%ax

00000000004224b8 <rio_writen>:
  4224b8:	41 55                	push   %r13
  4224ba:	41 54                	push   %r12
  4224bc:	55                   	push   %rbp
  4224bd:	53                   	push   %rbx
  4224be:	48 83 ec 08          	sub    $0x8,%rsp
  4224c2:	41 89 fc             	mov    %edi,%r12d
  4224c5:	48 89 f5             	mov    %rsi,%rbp
  4224c8:	49 89 d5             	mov    %rdx,%r13
  4224cb:	48 89 d3             	mov    %rdx,%rbx
  4224ce:	eb 28                	jmp    4224f8 <rio_writen+0x40>
  4224d0:	48 89 da             	mov    %rbx,%rdx
  4224d3:	48 89 ee             	mov    %rbp,%rsi
  4224d6:	44 89 e7             	mov    %r12d,%edi
  4224d9:	e8 42 eb fd ff       	callq  401020 <write@plt>
  4224de:	48 85 c0             	test   %rax,%rax
  4224e1:	7f 0f                	jg     4224f2 <rio_writen+0x3a>
  4224e3:	e8 d8 ea fd ff       	callq  400fc0 <__errno_location@plt>
  4224e8:	83 38 04             	cmpl   $0x4,(%rax)
  4224eb:	75 15                	jne    422502 <rio_writen+0x4a>
  4224ed:	b8 00 00 00 00       	mov    $0x0,%eax
  4224f2:	48 29 c3             	sub    %rax,%rbx
  4224f5:	48 01 c5             	add    %rax,%rbp
  4224f8:	48 85 db             	test   %rbx,%rbx
  4224fb:	75 d3                	jne    4224d0 <rio_writen+0x18>
  4224fd:	4c 89 e8             	mov    %r13,%rax
  422500:	eb 07                	jmp    422509 <rio_writen+0x51>
  422502:	48 c7 c0 ff ff ff ff 	mov    $0xffffffffffffffff,%rax
  422509:	48 83 c4 08          	add    $0x8,%rsp
  42250d:	5b                   	pop    %rbx
  42250e:	5d                   	pop    %rbp
  42250f:	41 5c                	pop    %r12
  422511:	41 5d                	pop    %r13
  422513:	c3                   	retq   

0000000000422514 <rio_read>:
  422514:	41 56                	push   %r14
  422516:	41 55                	push   %r13
  422518:	41 54                	push   %r12
  42251a:	55                   	push   %rbp
  42251b:	53                   	push   %rbx
  42251c:	48 89 fb             	mov    %rdi,%rbx
  42251f:	49 89 f6             	mov    %rsi,%r14
  422522:	49 89 d5             	mov    %rdx,%r13
  422525:	4c 8d 67 10          	lea    0x10(%rdi),%r12
  422529:	eb 2f                	jmp    42255a <rio_read+0x46>
  42252b:	ba 00 20 00 00       	mov    $0x2000,%edx
  422530:	4c 89 e6             	mov    %r12,%rsi
  422533:	8b 3b                	mov    (%rbx),%edi
  422535:	e8 86 e9 fd ff       	callq  400ec0 <read@plt>
  42253a:	89 43 04             	mov    %eax,0x4(%rbx)
  42253d:	85 c0                	test   %eax,%eax
  42253f:	79 11                	jns    422552 <rio_read+0x3e>
  422541:	e8 7a ea fd ff       	callq  400fc0 <__errno_location@plt>
  422546:	83 38 04             	cmpl   $0x4,(%rax)
  422549:	74 0f                	je     42255a <rio_read+0x46>
  42254b:	0f 1f 44 00 00       	nopl   0x0(%rax,%rax,1)
  422550:	eb 37                	jmp    422589 <rio_read+0x75>
  422552:	85 c0                	test   %eax,%eax
  422554:	74 3c                	je     422592 <rio_read+0x7e>
  422556:	4c 89 63 08          	mov    %r12,0x8(%rbx)
  42255a:	8b 6b 04             	mov    0x4(%rbx),%ebp
  42255d:	85 ed                	test   %ebp,%ebp
  42255f:	7e ca                	jle    42252b <rio_read+0x17>
  422561:	89 e8                	mov    %ebp,%eax
  422563:	4c 39 e8             	cmp    %r13,%rax
  422566:	72 03                	jb     42256b <rio_read+0x57>
  422568:	44 89 ed             	mov    %r13d,%ebp
  42256b:	4c 63 e5             	movslq %ebp,%r12
  42256e:	48 8b 73 08          	mov    0x8(%rbx),%rsi
  422572:	4c 89 e2             	mov    %r12,%rdx
  422575:	4c 89 f7             	mov    %r14,%rdi
  422578:	e8 c3 ea fd ff       	callq  401040 <memcpy@plt>
  42257d:	4c 01 63 08          	add    %r12,0x8(%rbx)
  422581:	29 6b 04             	sub    %ebp,0x4(%rbx)
  422584:	4c 89 e0             	mov    %r12,%rax
  422587:	eb 0e                	jmp    422597 <rio_read+0x83>
  422589:	48 c7 c0 ff ff ff ff 	mov    $0xffffffffffffffff,%rax
  422590:	eb 05                	jmp    422597 <rio_read+0x83>
  422592:	b8 00 00 00 00       	mov    $0x0,%eax
  422597:	5b                   	pop    %rbx
  422598:	5d                   	pop    %rbp
  422599:	41 5c                	pop    %r12
  42259b:	41 5d                	pop    %r13
  42259d:	41 5e                	pop    %r14
  42259f:	c3                   	retq   

00000000004225a0 <rio_readlineb>:
  4225a0:	41 55                	push   %r13
  4225a2:	41 54                	push   %r12
  4225a4:	55                   	push   %rbp
  4225a5:	53                   	push   %rbx
  4225a6:	48 83 ec 18          	sub    $0x18,%rsp
  4225aa:	49 89 fd             	mov    %rdi,%r13
  4225ad:	48 89 f5             	mov    %rsi,%rbp
  4225b0:	49 89 d4             	mov    %rdx,%r12
  4225b3:	bb 01 00 00 00       	mov    $0x1,%ebx
  4225b8:	eb 41                	jmp    4225fb <rio_readlineb+0x5b>
  4225ba:	ba 01 00 00 00       	mov    $0x1,%edx
  4225bf:	48 8d 74 24 0f       	lea    0xf(%rsp),%rsi
  4225c4:	4c 89 ef             	mov    %r13,%rdi
  4225c7:	e8 48 ff ff ff       	callq  422514 <rio_read>
  4225cc:	83 f8 01             	cmp    $0x1,%eax
  4225cf:	75 12                	jne    4225e3 <rio_readlineb+0x43>
  4225d1:	48 8d 55 01          	lea    0x1(%rbp),%rdx
  4225d5:	0f b6 44 24 0f       	movzbl 0xf(%rsp),%eax
  4225da:	88 45 00             	mov    %al,0x0(%rbp)
  4225dd:	3c 0a                	cmp    $0xa,%al
  4225df:	75 13                	jne    4225f4 <rio_readlineb+0x54>
  4225e1:	eb 1f                	jmp    422602 <rio_readlineb+0x62>
  4225e3:	85 c0                	test   %eax,%eax
  4225e5:	75 27                	jne    42260e <rio_readlineb+0x6e>
  4225e7:	48 83 fb 01          	cmp    $0x1,%rbx
  4225eb:	0f 1f 44 00 00       	nopl   0x0(%rax,%rax,1)
  4225f0:	75 13                	jne    422605 <rio_readlineb+0x65>
  4225f2:	eb 23                	jmp    422617 <rio_readlineb+0x77>
  4225f4:	48 83 c3 01          	add    $0x1,%rbx
  4225f8:	48 89 d5             	mov    %rdx,%rbp
  4225fb:	4c 39 e3             	cmp    %r12,%rbx
  4225fe:	72 ba                	jb     4225ba <rio_readlineb+0x1a>
  422600:	eb 03                	jmp    422605 <rio_readlineb+0x65>
  422602:	48 89 d5             	mov    %rdx,%rbp
  422605:	c6 45 00 00          	movb   $0x0,0x0(%rbp)
  422609:	48 89 d8             	mov    %rbx,%rax
  42260c:	eb 0e                	jmp    42261c <rio_readlineb+0x7c>
  42260e:	48 c7 c0 ff ff ff ff 	mov    $0xffffffffffffffff,%rax
  422615:	eb 05                	jmp    42261c <rio_readlineb+0x7c>
  422617:	b8 00 00 00 00       	mov    $0x0,%eax
  42261c:	48 83 c4 18          	add    $0x18,%rsp
  422620:	5b                   	pop    %rbx
  422621:	5d                   	pop    %rbp
  422622:	41 5c                	pop    %r12
  422624:	41 5d                	pop    %r13
  422626:	c3                   	retq   
  422627:	90                   	nop

0000000000422628 <submitr>:
  422628:	41 57                	push   %r15
  42262a:	41 56                	push   %r14
  42262c:	41 55                	push   %r13
  42262e:	41 54                	push   %r12
  422630:	55                   	push   %rbp
  422631:	53                   	push   %rbx
  422632:	48 81 ec 58 a0 00 00 	sub    $0xa058,%rsp
  422639:	49 89 fc             	mov    %rdi,%r12
  42263c:	89 74 24 1c          	mov    %esi,0x1c(%rsp)
  422640:	48 89 54 24 10       	mov    %rdx,0x10(%rsp)
  422645:	49 89 cf             	mov    %rcx,%r15
  422648:	4d 89 c6             	mov    %r8,%r14
  42264b:	4d 89 cd             	mov    %r9,%r13
  42264e:	48 8b 9c 24 90 a0 00 	mov    0xa090(%rsp),%rbx
  422655:	00 
  422656:	c7 84 24 2c 20 00 00 	movl   $0x0,0x202c(%rsp)
  42265d:	00 00 00 00 
  422661:	ba 00 00 00 00       	mov    $0x0,%edx
  422666:	be 01 00 00 00       	mov    $0x1,%esi
  42266b:	bf 02 00 00 00       	mov    $0x2,%edi
  422670:	e8 2b e9 fd ff       	callq  400fa0 <socket@plt>
  422675:	89 c5                	mov    %eax,%ebp
  422677:	85 c0                	test   %eax,%eax
  422679:	79 4e                	jns    4226c9 <submitr+0xa1>
  42267b:	48 b8 45 72 72 6f 72 	movabs $0x43203a726f727245,%rax
  422682:	3a 20 43 
  422685:	48 89 03             	mov    %rax,(%rbx)
  422688:	48 b8 6c 69 65 6e 74 	movabs $0x6e7520746e65696c,%rax
  42268f:	20 75 6e 
  422692:	48 89 43 08          	mov    %rax,0x8(%rbx)
  422696:	48 b8 61 62 6c 65 20 	movabs $0x206f7420656c6261,%rax
  42269d:	74 6f 20 
  4226a0:	48 89 43 10          	mov    %rax,0x10(%rbx)
  4226a4:	48 b8 63 72 65 61 74 	movabs $0x7320657461657263,%rax
  4226ab:	65 20 73 
  4226ae:	48 89 43 18          	mov    %rax,0x18(%rbx)
  4226b2:	c7 43 20 6f 63 6b 65 	movl   $0x656b636f,0x20(%rbx)
  4226b9:	66 c7 43 24 74 00    	movw   $0x74,0x24(%rbx)
  4226bf:	b8 ff ff ff ff       	mov    $0xffffffff,%eax
  4226c4:	e9 83 06 00 00       	jmpq   422d4c <submitr+0x724>
  4226c9:	4c 89 e7             	mov    %r12,%rdi
  4226cc:	e8 7f e7 fd ff       	callq  400e50 <gethostbyname@plt>
  4226d1:	48 85 c0             	test   %rax,%rax
  4226d4:	75 75                	jne    42274b <submitr+0x123>
  4226d6:	48 b8 45 72 72 6f 72 	movabs $0x44203a726f727245,%rax
  4226dd:	3a 20 44 
  4226e0:	48 89 03             	mov    %rax,(%rbx)
  4226e3:	48 b8 4e 53 20 69 73 	movabs $0x6e7520736920534e,%rax
  4226ea:	20 75 6e 
  4226ed:	48 89 43 08          	mov    %rax,0x8(%rbx)
  4226f1:	48 b8 61 62 6c 65 20 	movabs $0x206f7420656c6261,%rax
  4226f8:	74 6f 20 
  4226fb:	48 89 43 10          	mov    %rax,0x10(%rbx)
  4226ff:	48 b8 72 65 73 6f 6c 	movabs $0x2065766c6f736572,%rax
  422706:	76 65 20 
  422709:	48 89 43 18          	mov    %rax,0x18(%rbx)
  42270d:	48 b8 41 75 74 6f 6c 	movabs $0x2062616c6f747541,%rax
  422714:	61 62 20 
  422717:	48 89 43 20          	mov    %rax,0x20(%rbx)
  42271b:	48 b8 73 65 72 76 65 	movabs $0x6120726576726573,%rax
  422722:	72 20 61 
  422725:	48 89 43 28          	mov    %rax,0x28(%rbx)
  422729:	c7 43 30 64 64 72 65 	movl   $0x65726464,0x30(%rbx)
  422730:	66 c7 43 34 73 73    	movw   $0x7373,0x34(%rbx)
  422736:	c6 43 36 00          	movb   $0x0,0x36(%rbx)
  42273a:	89 ef                	mov    %ebp,%edi
  42273c:	e8 ff e6 fd ff       	callq  400e40 <close@plt>
  422741:	b8 ff ff ff ff       	mov    $0xffffffff,%eax
  422746:	e9 01 06 00 00       	jmpq   422d4c <submitr+0x724>
  42274b:	48 c7 84 24 40 a0 00 	movq   $0x0,0xa040(%rsp)
  422752:	00 00 00 00 00 
  422757:	48 c7 84 24 48 a0 00 	movq   $0x0,0xa048(%rsp)
  42275e:	00 00 00 00 00 
  422763:	66 c7 84 24 40 a0 00 	movw   $0x2,0xa040(%rsp)
  42276a:	00 02 00 
  42276d:	48 8b 48 18          	mov    0x18(%rax),%rcx
  422771:	48 63 50 14          	movslq 0x14(%rax),%rdx
  422775:	48 8d b4 24 44 a0 00 	lea    0xa044(%rsp),%rsi
  42277c:	00 
  42277d:	48 8b 39             	mov    (%rcx),%rdi
  422780:	e8 ab e7 fd ff       	callq  400f30 <bcopy@plt>
  422785:	0f b7 44 24 1c       	movzwl 0x1c(%rsp),%eax
  42278a:	66 c1 c8 08          	ror    $0x8,%ax
  42278e:	66 89 84 24 42 a0 00 	mov    %ax,0xa042(%rsp)
  422795:	00 
  422796:	ba 10 00 00 00       	mov    $0x10,%edx
  42279b:	48 8d b4 24 40 a0 00 	lea    0xa040(%rsp),%rsi
  4227a2:	00 
  4227a3:	89 ef                	mov    %ebp,%edi
  4227a5:	e8 c6 e7 fd ff       	callq  400f70 <connect@plt>
  4227aa:	85 c0                	test   %eax,%eax
  4227ac:	79 67                	jns    422815 <submitr+0x1ed>
  4227ae:	48 b8 45 72 72 6f 72 	movabs $0x55203a726f727245,%rax
  4227b5:	3a 20 55 
  4227b8:	48 89 03             	mov    %rax,(%rbx)
  4227bb:	48 b8 6e 61 62 6c 65 	movabs $0x6f7420656c62616e,%rax
  4227c2:	20 74 6f 
  4227c5:	48 89 43 08          	mov    %rax,0x8(%rbx)
  4227c9:	48 b8 20 63 6f 6e 6e 	movabs $0x7463656e6e6f6320,%rax
  4227d0:	65 63 74 
  4227d3:	48 89 43 10          	mov    %rax,0x10(%rbx)
  4227d7:	48 b8 20 74 6f 20 74 	movabs $0x20656874206f7420,%rax
  4227de:	68 65 20 
  4227e1:	48 89 43 18          	mov    %rax,0x18(%rbx)
  4227e5:	48 b8 41 75 74 6f 6c 	movabs $0x2062616c6f747541,%rax
  4227ec:	61 62 20 
  4227ef:	48 89 43 20          	mov    %rax,0x20(%rbx)
  4227f3:	c7 43 28 73 65 72 76 	movl   $0x76726573,0x28(%rbx)
  4227fa:	66 c7 43 2c 65 72    	movw   $0x7265,0x2c(%rbx)
  422800:	c6 43 2e 00          	movb   $0x0,0x2e(%rbx)
  422804:	89 ef                	mov    %ebp,%edi
  422806:	e8 35 e6 fd ff       	callq  400e40 <close@plt>
  42280b:	b8 ff ff ff ff       	mov    $0xffffffff,%eax
  422810:	e9 37 05 00 00       	jmpq   422d4c <submitr+0x724>
  422815:	48 c7 c2 ff ff ff ff 	mov    $0xffffffffffffffff,%rdx
  42281c:	4c 89 ef             	mov    %r13,%rdi
  42281f:	b8 00 00 00 00       	mov    $0x0,%eax
  422824:	48 89 d1             	mov    %rdx,%rcx
  422827:	f2 ae                	repnz scas %es:(%rdi),%al
  422829:	48 f7 d1             	not    %rcx
  42282c:	48 89 ce             	mov    %rcx,%rsi
  42282f:	48 8b 7c 24 10       	mov    0x10(%rsp),%rdi
  422834:	48 89 d1             	mov    %rdx,%rcx
  422837:	f2 ae                	repnz scas %es:(%rdi),%al
  422839:	48 f7 d1             	not    %rcx
  42283c:	49 89 c8             	mov    %rcx,%r8
  42283f:	4c 89 ff             	mov    %r15,%rdi
  422842:	48 89 d1             	mov    %rdx,%rcx
  422845:	f2 ae                	repnz scas %es:(%rdi),%al
  422847:	49 29 c8             	sub    %rcx,%r8
  42284a:	4c 89 f7             	mov    %r14,%rdi
  42284d:	48 89 d1             	mov    %rdx,%rcx
  422850:	f2 ae                	repnz scas %es:(%rdi),%al
  422852:	49 29 c8             	sub    %rcx,%r8
  422855:	48 8d 44 76 fd       	lea    -0x3(%rsi,%rsi,2),%rax
  42285a:	49 8d 44 00 7b       	lea    0x7b(%r8,%rax,1),%rax
  42285f:	48 3d 00 20 00 00    	cmp    $0x2000,%rax
  422865:	76 72                	jbe    4228d9 <submitr+0x2b1>
  422867:	48 b8 45 72 72 6f 72 	movabs $0x52203a726f727245,%rax
  42286e:	3a 20 52 
  422871:	48 89 03             	mov    %rax,(%rbx)
  422874:	48 b8 65 73 75 6c 74 	movabs $0x747320746c757365,%rax
  42287b:	20 73 74 
  42287e:	48 89 43 08          	mov    %rax,0x8(%rbx)
  422882:	48 b8 72 69 6e 67 20 	movabs $0x6f6f7420676e6972,%rax
  422889:	74 6f 6f 
  42288c:	48 89 43 10          	mov    %rax,0x10(%rbx)
  422890:	48 b8 20 6c 61 72 67 	movabs $0x202e656772616c20,%rax
  422897:	65 2e 20 
  42289a:	48 89 43 18          	mov    %rax,0x18(%rbx)
  42289e:	48 b8 49 6e 63 72 65 	movabs $0x6573616572636e49,%rax
  4228a5:	61 73 65 
  4228a8:	48 89 43 20          	mov    %rax,0x20(%rbx)
  4228ac:	48 b8 20 53 55 42 4d 	movabs $0x5254494d42555320,%rax
  4228b3:	49 54 52 
  4228b6:	48 89 43 28          	mov    %rax,0x28(%rbx)
  4228ba:	48 b8 5f 4d 41 58 42 	movabs $0x46554258414d5f,%rax
  4228c1:	55 46 00 
  4228c4:	48 89 43 30          	mov    %rax,0x30(%rbx)
  4228c8:	89 ef                	mov    %ebp,%edi
  4228ca:	e8 71 e5 fd ff       	callq  400e40 <close@plt>
  4228cf:	b8 ff ff ff ff       	mov    $0xffffffff,%eax
  4228d4:	e9 73 04 00 00       	jmpq   422d4c <submitr+0x724>
  4228d9:	48 8d b4 24 30 40 00 	lea    0x4030(%rsp),%rsi
  4228e0:	00 
  4228e1:	b9 00 04 00 00       	mov    $0x400,%ecx
  4228e6:	b8 00 00 00 00       	mov    $0x0,%eax
  4228eb:	48 89 f7             	mov    %rsi,%rdi
  4228ee:	f3 48 ab             	rep stos %rax,%es:(%rdi)
  4228f1:	4c 89 ef             	mov    %r13,%rdi
  4228f4:	e8 e7 fa ff ff       	callq  4223e0 <urlencode>
  4228f9:	85 c0                	test   %eax,%eax
  4228fb:	0f 89 8a 00 00 00    	jns    42298b <submitr+0x363>
  422901:	48 b8 45 72 72 6f 72 	movabs $0x52203a726f727245,%rax
  422908:	3a 20 52 
  42290b:	48 89 03             	mov    %rax,(%rbx)
  42290e:	48 b8 65 73 75 6c 74 	movabs $0x747320746c757365,%rax
  422915:	20 73 74 
  422918:	48 89 43 08          	mov    %rax,0x8(%rbx)
  42291c:	48 b8 72 69 6e 67 20 	movabs $0x6e6f6320676e6972,%rax
  422923:	63 6f 6e 
  422926:	48 89 43 10          	mov    %rax,0x10(%rbx)
  42292a:	48 b8 74 61 69 6e 73 	movabs $0x6e6120736e696174,%rax
  422931:	20 61 6e 
  422934:	48 89 43 18          	mov    %rax,0x18(%rbx)
  422938:	48 b8 20 69 6c 6c 65 	movabs $0x6c6167656c6c6920,%rax
  42293f:	67 61 6c 
  422942:	48 89 43 20          	mov    %rax,0x20(%rbx)
  422946:	48 b8 20 6f 72 20 75 	movabs $0x72706e7520726f20,%rax
  42294d:	6e 70 72 
  422950:	48 89 43 28          	mov    %rax,0x28(%rbx)
  422954:	48 b8 69 6e 74 61 62 	movabs $0x20656c6261746e69,%rax
  42295b:	6c 65 20 
  42295e:	48 89 43 30          	mov    %rax,0x30(%rbx)
  422962:	48 b8 63 68 61 72 61 	movabs $0x6574636172616863,%rax
  422969:	63 74 65 
  42296c:	48 89 43 38          	mov    %rax,0x38(%rbx)
  422970:	66 c7 43 40 72 2e    	movw   $0x2e72,0x40(%rbx)
  422976:	c6 43 42 00          	movb   $0x0,0x42(%rbx)
  42297a:	89 ef                	mov    %ebp,%edi
  42297c:	e8 bf e4 fd ff       	callq  400e40 <close@plt>
  422981:	b8 ff ff ff ff       	mov    $0xffffffff,%eax
  422986:	e9 c1 03 00 00       	jmpq   422d4c <submitr+0x724>
  42298b:	4c 89 24 24          	mov    %r12,(%rsp)
  42298f:	4c 8d 8c 24 30 40 00 	lea    0x4030(%rsp),%r9
  422996:	00 
  422997:	4d 89 f8             	mov    %r15,%r8
  42299a:	4c 89 f1             	mov    %r14,%rcx
  42299d:	48 8b 54 24 10       	mov    0x10(%rsp),%rdx
  4229a2:	be a8 3b 42 00       	mov    $0x423ba8,%esi
  4229a7:	48 8d bc 24 30 60 00 	lea    0x6030(%rsp),%rdi
  4229ae:	00 
  4229af:	b8 00 00 00 00       	mov    $0x0,%eax
  4229b4:	e8 87 e5 fd ff       	callq  400f40 <sprintf@plt>
  4229b9:	48 8d bc 24 30 60 00 	lea    0x6030(%rsp),%rdi
  4229c0:	00 
  4229c1:	b8 00 00 00 00       	mov    $0x0,%eax
  4229c6:	48 c7 c1 ff ff ff ff 	mov    $0xffffffffffffffff,%rcx
  4229cd:	f2 ae                	repnz scas %es:(%rdi),%al
  4229cf:	48 f7 d1             	not    %rcx
  4229d2:	48 8d 51 ff          	lea    -0x1(%rcx),%rdx
  4229d6:	48 8d b4 24 30 60 00 	lea    0x6030(%rsp),%rsi
  4229dd:	00 
  4229de:	89 ef                	mov    %ebp,%edi
  4229e0:	e8 d3 fa ff ff       	callq  4224b8 <rio_writen>
  4229e5:	48 85 c0             	test   %rax,%rax
  4229e8:	79 6b                	jns    422a55 <submitr+0x42d>
  4229ea:	48 b8 45 72 72 6f 72 	movabs $0x43203a726f727245,%rax
  4229f1:	3a 20 43 
  4229f4:	48 89 03             	mov    %rax,(%rbx)
  4229f7:	48 b8 6c 69 65 6e 74 	movabs $0x6e7520746e65696c,%rax
  4229fe:	20 75 6e 
  422a01:	48 89 43 08          	mov    %rax,0x8(%rbx)
  422a05:	48 b8 61 62 6c 65 20 	movabs $0x206f7420656c6261,%rax
  422a0c:	74 6f 20 
  422a0f:	48 89 43 10          	mov    %rax,0x10(%rbx)
  422a13:	48 b8 77 72 69 74 65 	movabs $0x6f74206574697277,%rax
  422a1a:	20 74 6f 
  422a1d:	48 89 43 18          	mov    %rax,0x18(%rbx)
  422a21:	48 b8 20 74 68 65 20 	movabs $0x7475412065687420,%rax
  422a28:	41 75 74 
  422a2b:	48 89 43 20          	mov    %rax,0x20(%rbx)
  422a2f:	48 b8 6f 6c 61 62 20 	movabs $0x7265732062616c6f,%rax
  422a36:	73 65 72 
  422a39:	48 89 43 28          	mov    %rax,0x28(%rbx)
  422a3d:	c7 43 30 76 65 72 00 	movl   $0x726576,0x30(%rbx)
  422a44:	89 ef                	mov    %ebp,%edi
  422a46:	e8 f5 e3 fd ff       	callq  400e40 <close@plt>
  422a4b:	b8 ff ff ff ff       	mov    $0xffffffff,%eax
  422a50:	e9 f7 02 00 00       	jmpq   422d4c <submitr+0x724>
  422a55:	89 ee                	mov    %ebp,%esi
  422a57:	48 8d bc 24 30 80 00 	lea    0x8030(%rsp),%rdi
  422a5e:	00 
  422a5f:	e8 3c f9 ff ff       	callq  4223a0 <rio_readinitb>
  422a64:	ba 00 20 00 00       	mov    $0x2000,%edx
  422a69:	48 8d b4 24 30 60 00 	lea    0x6030(%rsp),%rsi
  422a70:	00 
  422a71:	48 8d bc 24 30 80 00 	lea    0x8030(%rsp),%rdi
  422a78:	00 
  422a79:	e8 22 fb ff ff       	callq  4225a0 <rio_readlineb>
  422a7e:	48 85 c0             	test   %rax,%rax
  422a81:	7f 7f                	jg     422b02 <submitr+0x4da>
  422a83:	48 b8 45 72 72 6f 72 	movabs $0x43203a726f727245,%rax
  422a8a:	3a 20 43 
  422a8d:	48 89 03             	mov    %rax,(%rbx)
  422a90:	48 b8 6c 69 65 6e 74 	movabs $0x6e7520746e65696c,%rax
  422a97:	20 75 6e 
  422a9a:	48 89 43 08          	mov    %rax,0x8(%rbx)
  422a9e:	48 b8 61 62 6c 65 20 	movabs $0x206f7420656c6261,%rax
  422aa5:	74 6f 20 
  422aa8:	48 89 43 10          	mov    %rax,0x10(%rbx)
  422aac:	48 b8 72 65 61 64 20 	movabs $0x7269662064616572,%rax
  422ab3:	66 69 72 
  422ab6:	48 89 43 18          	mov    %rax,0x18(%rbx)
  422aba:	48 b8 73 74 20 68 65 	movabs $0x6564616568207473,%rax
  422ac1:	61 64 65 
  422ac4:	48 89 43 20          	mov    %rax,0x20(%rbx)
  422ac8:	48 b8 72 20 66 72 6f 	movabs $0x41206d6f72662072,%rax
  422acf:	6d 20 41 
  422ad2:	48 89 43 28          	mov    %rax,0x28(%rbx)
  422ad6:	48 b8 75 74 6f 6c 61 	movabs $0x732062616c6f7475,%rax
  422add:	62 20 73 
  422ae0:	48 89 43 30          	mov    %rax,0x30(%rbx)
  422ae4:	c7 43 38 65 72 76 65 	movl   $0x65767265,0x38(%rbx)
  422aeb:	66 c7 43 3c 72 00    	movw   $0x72,0x3c(%rbx)
  422af1:	89 ef                	mov    %ebp,%edi
  422af3:	e8 48 e3 fd ff       	callq  400e40 <close@plt>
  422af8:	b8 ff ff ff ff       	mov    $0xffffffff,%eax
  422afd:	e9 4a 02 00 00       	jmpq   422d4c <submitr+0x724>
  422b02:	4c 8d 44 24 20       	lea    0x20(%rsp),%r8
  422b07:	48 8d 8c 24 2c 20 00 	lea    0x202c(%rsp),%rcx
  422b0e:	00 
  422b0f:	48 8d 94 24 30 20 00 	lea    0x2030(%rsp),%rdx
  422b16:	00 
  422b17:	be 3c 3c 42 00       	mov    $0x423c3c,%esi
  422b1c:	48 8d bc 24 30 60 00 	lea    0x6030(%rsp),%rdi
  422b23:	00 
  422b24:	b8 00 00 00 00       	mov    $0x0,%eax
  422b29:	e8 52 e3 fd ff       	callq  400e80 <__isoc99_sscanf@plt>
  422b2e:	e9 95 00 00 00       	jmpq   422bc8 <submitr+0x5a0>
  422b33:	ba 00 20 00 00       	mov    $0x2000,%edx
  422b38:	48 8d b4 24 30 60 00 	lea    0x6030(%rsp),%rsi
  422b3f:	00 
  422b40:	48 8d bc 24 30 80 00 	lea    0x8030(%rsp),%rdi
  422b47:	00 
  422b48:	e8 53 fa ff ff       	callq  4225a0 <rio_readlineb>
  422b4d:	48 85 c0             	test   %rax,%rax
  422b50:	7f 76                	jg     422bc8 <submitr+0x5a0>
  422b52:	48 b8 45 72 72 6f 72 	movabs $0x43203a726f727245,%rax
  422b59:	3a 20 43 
  422b5c:	48 89 03             	mov    %rax,(%rbx)
  422b5f:	48 b8 6c 69 65 6e 74 	movabs $0x6e7520746e65696c,%rax
  422b66:	20 75 6e 
  422b69:	48 89 43 08          	mov    %rax,0x8(%rbx)
  422b6d:	48 b8 61 62 6c 65 20 	movabs $0x206f7420656c6261,%rax
  422b74:	74 6f 20 
  422b77:	48 89 43 10          	mov    %rax,0x10(%rbx)
  422b7b:	48 b8 72 65 61 64 20 	movabs $0x6165682064616572,%rax
  422b82:	68 65 61 
  422b85:	48 89 43 18          	mov    %rax,0x18(%rbx)
  422b89:	48 b8 64 65 72 73 20 	movabs $0x6f72662073726564,%rax
  422b90:	66 72 6f 
  422b93:	48 89 43 20          	mov    %rax,0x20(%rbx)
  422b97:	48 b8 6d 20 41 75 74 	movabs $0x616c6f747541206d,%rax
  422b9e:	6f 6c 61 
  422ba1:	48 89 43 28          	mov    %rax,0x28(%rbx)
  422ba5:	48 b8 62 20 73 65 72 	movabs $0x7265767265732062,%rax
  422bac:	76 65 72 
  422baf:	48 89 43 30          	mov    %rax,0x30(%rbx)
  422bb3:	c6 43 38 00          	movb   $0x0,0x38(%rbx)
  422bb7:	89 ef                	mov    %ebp,%edi
  422bb9:	e8 82 e2 fd ff       	callq  400e40 <close@plt>
  422bbe:	b8 ff ff ff ff       	mov    $0xffffffff,%eax
  422bc3:	e9 84 01 00 00       	jmpq   422d4c <submitr+0x724>
  422bc8:	0f b6 84 24 30 60 00 	movzbl 0x6030(%rsp),%eax
  422bcf:	00 
  422bd0:	83 e8 0d             	sub    $0xd,%eax
  422bd3:	75 15                	jne    422bea <submitr+0x5c2>
  422bd5:	0f b6 84 24 31 60 00 	movzbl 0x6031(%rsp),%eax
  422bdc:	00 
  422bdd:	83 e8 0a             	sub    $0xa,%eax
  422be0:	75 08                	jne    422bea <submitr+0x5c2>
  422be2:	0f b6 84 24 32 60 00 	movzbl 0x6032(%rsp),%eax
  422be9:	00 
  422bea:	85 c0                	test   %eax,%eax
  422bec:	0f 85 41 ff ff ff    	jne    422b33 <submitr+0x50b>
  422bf2:	ba 00 20 00 00       	mov    $0x2000,%edx
  422bf7:	48 8d b4 24 30 60 00 	lea    0x6030(%rsp),%rsi
  422bfe:	00 
  422bff:	48 8d bc 24 30 80 00 	lea    0x8030(%rsp),%rdi
  422c06:	00 
  422c07:	e8 94 f9 ff ff       	callq  4225a0 <rio_readlineb>
  422c0c:	48 85 c0             	test   %rax,%rax
  422c0f:	0f 8f 80 00 00 00    	jg     422c95 <submitr+0x66d>
  422c15:	48 b8 45 72 72 6f 72 	movabs $0x43203a726f727245,%rax
  422c1c:	3a 20 43 
  422c1f:	48 89 03             	mov    %rax,(%rbx)
  422c22:	48 b8 6c 69 65 6e 74 	movabs $0x6e7520746e65696c,%rax
  422c29:	20 75 6e 
  422c2c:	48 89 43 08          	mov    %rax,0x8(%rbx)
  422c30:	48 b8 61 62 6c 65 20 	movabs $0x206f7420656c6261,%rax
  422c37:	74 6f 20 
  422c3a:	48 89 43 10          	mov    %rax,0x10(%rbx)
  422c3e:	48 b8 72 65 61 64 20 	movabs $0x6174732064616572,%rax
  422c45:	73 74 61 
  422c48:	48 89 43 18          	mov    %rax,0x18(%rbx)
  422c4c:	48 b8 74 75 73 20 6d 	movabs $0x7373656d20737574,%rax
  422c53:	65 73 73 
  422c56:	48 89 43 20          	mov    %rax,0x20(%rbx)
  422c5a:	48 b8 61 67 65 20 66 	movabs $0x6d6f726620656761,%rax
  422c61:	72 6f 6d 
  422c64:	48 89 43 28          	mov    %rax,0x28(%rbx)
  422c68:	48 b8 20 41 75 74 6f 	movabs $0x62616c6f74754120,%rax
  422c6f:	6c 61 62 
  422c72:	48 89 43 30          	mov    %rax,0x30(%rbx)
  422c76:	48 b8 20 73 65 72 76 	movabs $0x72657672657320,%rax
  422c7d:	65 72 00 
  422c80:	48 89 43 38          	mov    %rax,0x38(%rbx)
  422c84:	89 ef                	mov    %ebp,%edi
  422c86:	e8 b5 e1 fd ff       	callq  400e40 <close@plt>
  422c8b:	b8 ff ff ff ff       	mov    $0xffffffff,%eax
  422c90:	e9 b7 00 00 00       	jmpq   422d4c <submitr+0x724>
  422c95:	8b 94 24 2c 20 00 00 	mov    0x202c(%rsp),%edx
  422c9c:	81 fa c8 00 00 00    	cmp    $0xc8,%edx
  422ca2:	74 28                	je     422ccc <submitr+0x6a4>
  422ca4:	48 8d 4c 24 20       	lea    0x20(%rsp),%rcx
  422ca9:	be 08 3c 42 00       	mov    $0x423c08,%esi
  422cae:	48 89 df             	mov    %rbx,%rdi
  422cb1:	b8 00 00 00 00       	mov    $0x0,%eax
  422cb6:	e8 85 e2 fd ff       	callq  400f40 <sprintf@plt>
  422cbb:	89 ef                	mov    %ebp,%edi
  422cbd:	e8 7e e1 fd ff       	callq  400e40 <close@plt>
  422cc2:	b8 ff ff ff ff       	mov    $0xffffffff,%eax
  422cc7:	e9 80 00 00 00       	jmpq   422d4c <submitr+0x724>
  422ccc:	48 8d b4 24 30 60 00 	lea    0x6030(%rsp),%rsi
  422cd3:	00 
  422cd4:	48 89 df             	mov    %rbx,%rdi
  422cd7:	e8 04 e3 fd ff       	callq  400fe0 <strcpy@plt>
  422cdc:	89 ef                	mov    %ebp,%edi
  422cde:	e8 5d e1 fd ff       	callq  400e40 <close@plt>
  422ce3:	0f b6 03             	movzbl (%rbx),%eax
  422ce6:	83 e8 4f             	sub    $0x4f,%eax
  422ce9:	75 18                	jne    422d03 <submitr+0x6db>
  422ceb:	0f b6 53 01          	movzbl 0x1(%rbx),%edx
  422cef:	83 ea 4b             	sub    $0x4b,%edx
  422cf2:	75 11                	jne    422d05 <submitr+0x6dd>
  422cf4:	0f b6 53 02          	movzbl 0x2(%rbx),%edx
  422cf8:	83 ea 0a             	sub    $0xa,%edx
  422cfb:	75 08                	jne    422d05 <submitr+0x6dd>
  422cfd:	0f b6 53 03          	movzbl 0x3(%rbx),%edx
  422d01:	eb 02                	jmp    422d05 <submitr+0x6dd>
  422d03:	89 c2                	mov    %eax,%edx
  422d05:	85 d2                	test   %edx,%edx
  422d07:	74 30                	je     422d39 <submitr+0x711>
  422d09:	bf 4d 3c 42 00       	mov    $0x423c4d,%edi
  422d0e:	b9 05 00 00 00       	mov    $0x5,%ecx
  422d13:	48 89 de             	mov    %rbx,%rsi
  422d16:	f3 a6                	repz cmpsb %es:(%rdi),%ds:(%rsi)
  422d18:	0f 97 c1             	seta   %cl
  422d1b:	0f 92 c2             	setb   %dl
  422d1e:	38 d1                	cmp    %dl,%cl
  422d20:	74 1e                	je     422d40 <submitr+0x718>
  422d22:	85 c0                	test   %eax,%eax
  422d24:	75 0d                	jne    422d33 <submitr+0x70b>
  422d26:	0f b6 43 01          	movzbl 0x1(%rbx),%eax
  422d2a:	83 e8 4b             	sub    $0x4b,%eax
  422d2d:	75 04                	jne    422d33 <submitr+0x70b>
  422d2f:	0f b6 43 02          	movzbl 0x2(%rbx),%eax
  422d33:	85 c0                	test   %eax,%eax
  422d35:	75 10                	jne    422d47 <submitr+0x71f>
  422d37:	eb 13                	jmp    422d4c <submitr+0x724>
  422d39:	b8 00 00 00 00       	mov    $0x0,%eax
  422d3e:	eb 0c                	jmp    422d4c <submitr+0x724>
  422d40:	b8 00 00 00 00       	mov    $0x0,%eax
  422d45:	eb 05                	jmp    422d4c <submitr+0x724>
  422d47:	b8 ff ff ff ff       	mov    $0xffffffff,%eax
  422d4c:	48 81 c4 58 a0 00 00 	add    $0xa058,%rsp
  422d53:	5b                   	pop    %rbx
  422d54:	5d                   	pop    %rbp
  422d55:	41 5c                	pop    %r12
  422d57:	41 5d                	pop    %r13
  422d59:	41 5e                	pop    %r14
  422d5b:	41 5f                	pop    %r15
  422d5d:	c3                   	retq   
  422d5e:	66 90                	xchg   %ax,%ax

0000000000422d60 <init_timeout>:
  422d60:	53                   	push   %rbx
  422d61:	89 fb                	mov    %edi,%ebx
  422d63:	85 ff                	test   %edi,%edi
  422d65:	74 1f                	je     422d86 <init_timeout+0x26>
  422d67:	85 ff                	test   %edi,%edi
  422d69:	79 05                	jns    422d70 <init_timeout+0x10>
  422d6b:	bb 00 00 00 00       	mov    $0x0,%ebx
  422d70:	be b4 23 42 00       	mov    $0x4223b4,%esi
  422d75:	bf 0e 00 00 00       	mov    $0xe,%edi
  422d7a:	e8 11 e2 fd ff       	callq  400f90 <signal@plt>
  422d7f:	89 df                	mov    %ebx,%edi
  422d81:	e8 2a e2 fd ff       	callq  400fb0 <alarm@plt>
  422d86:	5b                   	pop    %rbx
  422d87:	c3                   	retq   

0000000000422d88 <init_driver>:
  422d88:	55                   	push   %rbp
  422d89:	53                   	push   %rbx
  422d8a:	48 83 ec 18          	sub    $0x18,%rsp
  422d8e:	48 89 fd             	mov    %rdi,%rbp
  422d91:	be 01 00 00 00       	mov    $0x1,%esi
  422d96:	bf 0d 00 00 00       	mov    $0xd,%edi
  422d9b:	e8 f0 e1 fd ff       	callq  400f90 <signal@plt>
  422da0:	be 01 00 00 00       	mov    $0x1,%esi
  422da5:	bf 1d 00 00 00       	mov    $0x1d,%edi
  422daa:	e8 e1 e1 fd ff       	callq  400f90 <signal@plt>
  422daf:	be 01 00 00 00       	mov    $0x1,%esi
  422db4:	bf 1d 00 00 00       	mov    $0x1d,%edi
  422db9:	e8 d2 e1 fd ff       	callq  400f90 <signal@plt>
  422dbe:	ba 00 00 00 00       	mov    $0x0,%edx
  422dc3:	be 01 00 00 00       	mov    $0x1,%esi
  422dc8:	bf 02 00 00 00       	mov    $0x2,%edi
  422dcd:	e8 ce e1 fd ff       	callq  400fa0 <socket@plt>
  422dd2:	89 c3                	mov    %eax,%ebx
  422dd4:	85 c0                	test   %eax,%eax
  422dd6:	79 4f                	jns    422e27 <init_driver+0x9f>
  422dd8:	48 b8 45 72 72 6f 72 	movabs $0x43203a726f727245,%rax
  422ddf:	3a 20 43 
  422de2:	48 89 45 00          	mov    %rax,0x0(%rbp)
  422de6:	48 b8 6c 69 65 6e 74 	movabs $0x6e7520746e65696c,%rax
  422ded:	20 75 6e 
  422df0:	48 89 45 08          	mov    %rax,0x8(%rbp)
  422df4:	48 b8 61 62 6c 65 20 	movabs $0x206f7420656c6261,%rax
  422dfb:	74 6f 20 
  422dfe:	48 89 45 10          	mov    %rax,0x10(%rbp)
  422e02:	48 b8 63 72 65 61 74 	movabs $0x7320657461657263,%rax
  422e09:	65 20 73 
  422e0c:	48 89 45 18          	mov    %rax,0x18(%rbp)
  422e10:	c7 45 20 6f 63 6b 65 	movl   $0x656b636f,0x20(%rbp)
  422e17:	66 c7 45 24 74 00    	movw   $0x74,0x24(%rbp)
  422e1d:	b8 ff ff ff ff       	mov    $0xffffffff,%eax
  422e22:	e9 23 01 00 00       	jmpq   422f4a <init_driver+0x1c2>
  422e27:	bf 52 3c 42 00       	mov    $0x423c52,%edi
  422e2c:	e8 1f e0 fd ff       	callq  400e50 <gethostbyname@plt>
  422e31:	48 85 c0             	test   %rax,%rax
  422e34:	75 68                	jne    422e9e <init_driver+0x116>
  422e36:	48 b8 45 72 72 6f 72 	movabs $0x44203a726f727245,%rax
  422e3d:	3a 20 44 
  422e40:	48 89 45 00          	mov    %rax,0x0(%rbp)
  422e44:	48 b8 4e 53 20 69 73 	movabs $0x6e7520736920534e,%rax
  422e4b:	20 75 6e 
  422e4e:	48 89 45 08          	mov    %rax,0x8(%rbp)
  422e52:	48 b8 61 62 6c 65 20 	movabs $0x206f7420656c6261,%rax
  422e59:	74 6f 20 
  422e5c:	48 89 45 10          	mov    %rax,0x10(%rbp)
  422e60:	48 b8 72 65 73 6f 6c 	movabs $0x2065766c6f736572,%rax
  422e67:	76 65 20 
  422e6a:	48 89 45 18          	mov    %rax,0x18(%rbp)
  422e6e:	48 b8 73 65 72 76 65 	movabs $0x6120726576726573,%rax
  422e75:	72 20 61 
  422e78:	48 89 45 20          	mov    %rax,0x20(%rbp)
  422e7c:	c7 45 28 64 64 72 65 	movl   $0x65726464,0x28(%rbp)
  422e83:	66 c7 45 2c 73 73    	movw   $0x7373,0x2c(%rbp)
  422e89:	c6 45 2e 00          	movb   $0x0,0x2e(%rbp)
  422e8d:	89 df                	mov    %ebx,%edi
  422e8f:	e8 ac df fd ff       	callq  400e40 <close@plt>
  422e94:	b8 ff ff ff ff       	mov    $0xffffffff,%eax
  422e99:	e9 ac 00 00 00       	jmpq   422f4a <init_driver+0x1c2>
  422e9e:	48 c7 04 24 00 00 00 	movq   $0x0,(%rsp)
  422ea5:	00 
  422ea6:	48 c7 44 24 08 00 00 	movq   $0x0,0x8(%rsp)
  422ead:	00 00 
  422eaf:	66 c7 04 24 02 00    	movw   $0x2,(%rsp)
  422eb5:	48 8b 48 18          	mov    0x18(%rax),%rcx
  422eb9:	48 63 50 14          	movslq 0x14(%rax),%rdx
  422ebd:	48 8d 74 24 04       	lea    0x4(%rsp),%rsi
  422ec2:	48 8b 39             	mov    (%rcx),%rdi
  422ec5:	e8 66 e0 fd ff       	callq  400f30 <bcopy@plt>
  422eca:	66 c7 44 24 02 00 50 	movw   $0x5000,0x2(%rsp)
  422ed1:	ba 10 00 00 00       	mov    $0x10,%edx
  422ed6:	48 89 e6             	mov    %rsp,%rsi
  422ed9:	89 df                	mov    %ebx,%edi
  422edb:	e8 90 e0 fd ff       	callq  400f70 <connect@plt>
  422ee0:	85 c0                	test   %eax,%eax
  422ee2:	79 50                	jns    422f34 <init_driver+0x1ac>
  422ee4:	48 b8 45 72 72 6f 72 	movabs $0x55203a726f727245,%rax
  422eeb:	3a 20 55 
  422eee:	48 89 45 00          	mov    %rax,0x0(%rbp)
  422ef2:	48 b8 6e 61 62 6c 65 	movabs $0x6f7420656c62616e,%rax
  422ef9:	20 74 6f 
  422efc:	48 89 45 08          	mov    %rax,0x8(%rbp)
  422f00:	48 b8 20 63 6f 6e 6e 	movabs $0x7463656e6e6f6320,%rax
  422f07:	65 63 74 
  422f0a:	48 89 45 10          	mov    %rax,0x10(%rbp)
  422f0e:	48 b8 20 74 6f 20 73 	movabs $0x76726573206f7420,%rax
  422f15:	65 72 76 
  422f18:	48 89 45 18          	mov    %rax,0x18(%rbp)
  422f1c:	66 c7 45 20 65 72    	movw   $0x7265,0x20(%rbp)
  422f22:	c6 45 22 00          	movb   $0x0,0x22(%rbp)
  422f26:	89 df                	mov    %ebx,%edi
  422f28:	e8 13 df fd ff       	callq  400e40 <close@plt>
  422f2d:	b8 ff ff ff ff       	mov    $0xffffffff,%eax
  422f32:	eb 16                	jmp    422f4a <init_driver+0x1c2>
  422f34:	89 df                	mov    %ebx,%edi
  422f36:	e8 05 df fd ff       	callq  400e40 <close@plt>
  422f3b:	66 c7 45 00 4f 4b    	movw   $0x4b4f,0x0(%rbp)
  422f41:	c6 45 02 00          	movb   $0x0,0x2(%rbp)
  422f45:	b8 00 00 00 00       	mov    $0x0,%eax
  422f4a:	48 83 c4 18          	add    $0x18,%rsp
  422f4e:	5b                   	pop    %rbx
  422f4f:	5d                   	pop    %rbp
  422f50:	c3                   	retq   
  422f51:	0f 1f 00             	nopl   (%rax)

0000000000422f54 <driver_post>:
  422f54:	53                   	push   %rbx
  422f55:	48 83 ec 10          	sub    $0x10,%rsp
  422f59:	4c 89 cb             	mov    %r9,%rbx
  422f5c:	45 85 c0             	test   %r8d,%r8d
  422f5f:	74 22                	je     422f83 <driver_post+0x2f>
  422f61:	48 89 ce             	mov    %rcx,%rsi
  422f64:	bf 69 3c 42 00       	mov    $0x423c69,%edi
  422f69:	b8 00 00 00 00       	mov    $0x0,%eax
  422f6e:	e8 ad de fd ff       	callq  400e20 <printf@plt>
  422f73:	66 c7 03 4f 4b       	movw   $0x4b4f,(%rbx)
  422f78:	c6 43 02 00          	movb   $0x0,0x2(%rbx)
  422f7c:	b8 00 00 00 00       	mov    $0x0,%eax
  422f81:	eb 39                	jmp    422fbc <driver_post+0x68>
  422f83:	48 85 ff             	test   %rdi,%rdi
  422f86:	74 26                	je     422fae <driver_post+0x5a>
  422f88:	80 3f 00             	cmpb   $0x0,(%rdi)
  422f8b:	74 21                	je     422fae <driver_post+0x5a>
  422f8d:	4c 89 0c 24          	mov    %r9,(%rsp)
  422f91:	49 89 c9             	mov    %rcx,%r9
  422f94:	49 89 d0             	mov    %rdx,%r8
  422f97:	48 89 f9             	mov    %rdi,%rcx
  422f9a:	48 89 f2             	mov    %rsi,%rdx
  422f9d:	be 50 00 00 00       	mov    $0x50,%esi
  422fa2:	bf 52 3c 42 00       	mov    $0x423c52,%edi
  422fa7:	e8 7c f6 ff ff       	callq  422628 <submitr>
  422fac:	eb 0e                	jmp    422fbc <driver_post+0x68>
  422fae:	66 c7 03 4f 4b       	movw   $0x4b4f,(%rbx)
  422fb3:	c6 43 02 00          	movb   $0x0,0x2(%rbx)
  422fb7:	b8 00 00 00 00       	mov    $0x0,%eax
  422fbc:	48 83 c4 10          	add    $0x10,%rsp
  422fc0:	5b                   	pop    %rbx
  422fc1:	c3                   	retq   

0000000000422fc2 <check>:
  422fc2:	89 f8                	mov    %edi,%eax
  422fc4:	c1 e8 1c             	shr    $0x1c,%eax
  422fc7:	85 c0                	test   %eax,%eax
  422fc9:	74 1d                	je     422fe8 <check+0x26>
  422fcb:	b9 00 00 00 00       	mov    $0x0,%ecx
  422fd0:	eb 0b                	jmp    422fdd <check+0x1b>
  422fd2:	89 f8                	mov    %edi,%eax
  422fd4:	d3 e8                	shr    %cl,%eax
  422fd6:	3c 0a                	cmp    $0xa,%al
  422fd8:	74 14                	je     422fee <check+0x2c>
  422fda:	83 c1 08             	add    $0x8,%ecx
  422fdd:	83 f9 1f             	cmp    $0x1f,%ecx
  422fe0:	7e f0                	jle    422fd2 <check+0x10>
  422fe2:	b8 01 00 00 00       	mov    $0x1,%eax
  422fe7:	c3                   	retq   
  422fe8:	b8 00 00 00 00       	mov    $0x0,%eax
  422fed:	c3                   	retq   
  422fee:	b8 00 00 00 00       	mov    $0x0,%eax
  422ff3:	c3                   	retq   

0000000000422ff4 <gencookie>:
  422ff4:	53                   	push   %rbx
  422ff5:	83 c7 01             	add    $0x1,%edi
  422ff8:	e8 03 df fd ff       	callq  400f00 <srandom@plt>
  422ffd:	e8 fe df fd ff       	callq  401000 <random@plt>
  423002:	89 c3                	mov    %eax,%ebx
  423004:	89 c7                	mov    %eax,%edi
  423006:	e8 b7 ff ff ff       	callq  422fc2 <check>
  42300b:	85 c0                	test   %eax,%eax
  42300d:	74 ee                	je     422ffd <gencookie+0x9>
  42300f:	89 d8                	mov    %ebx,%eax
  423011:	5b                   	pop    %rbx
  423012:	c3                   	retq   
  423013:	90                   	nop

0000000000423014 <checkhash>:
  423014:	53                   	push   %rbx
  423015:	48 81 ec f0 00 00 00 	sub    $0xf0,%rsp
  42301c:	48 b8 6d 31 38 2d 31 	movabs $0x313235312d38316d,%rax
  423023:	35 32 31 
  423026:	48 89 84 24 e0 00 00 	mov    %rax,0xe0(%rsp)
  42302d:	00 
  42302e:	66 c7 84 24 e8 00 00 	movw   $0x33,0xe8(%rsp)
  423035:	00 33 00 
  423038:	48 b8 61 74 74 61 63 	movabs $0x616c6b6361747461,%rax
  42303f:	6b 6c 61 
  423042:	48 89 84 24 d0 00 00 	mov    %rax,0xd0(%rsp)
  423049:	00 
  42304a:	66 c7 84 24 d8 00 00 	movw   $0x62,0xd8(%rsp)
  423051:	00 62 00 
  423054:	48 b8 42 4f 4f 47 41 	movabs $0x4f4f4241474f4f42,%rax
  42305b:	42 4f 4f 
  42305e:	48 89 84 24 c0 00 00 	mov    %rax,0xc0(%rsp)
  423065:	00 
  423066:	66 c7 84 24 c8 00 00 	movw   $0x4147,0xc8(%rsp)
  42306d:	00 47 41 
  423070:	c6 84 24 ca 00 00 00 	movb   $0x0,0xca(%rsp)
  423077:	00 
  423078:	48 b8 6b 65 79 2e 74 	movabs $0x7478742e79656b,%rax
  42307f:	78 74 00 
  423082:	48 89 84 24 b0 00 00 	mov    %rax,0xb0(%rsp)
  423089:	00 
  42308a:	be 35 39 42 00       	mov    $0x423935,%esi
  42308f:	48 8d bc 24 b0 00 00 	lea    0xb0(%rsp),%rdi
  423096:	00 
  423097:	e8 44 de fd ff       	callq  400ee0 <fopen@plt>
  42309c:	48 89 c3             	mov    %rax,%rbx
  42309f:	48 85 c0             	test   %rax,%rax
  4230a2:	75 21                	jne    4230c5 <checkhash+0xb1>
  4230a4:	48 8d b4 24 b0 00 00 	lea    0xb0(%rsp),%rsi
  4230ab:	00 
  4230ac:	bf 88 3c 42 00       	mov    $0x423c88,%edi
  4230b1:	b8 00 00 00 00       	mov    $0x0,%eax
  4230b6:	e8 65 dd fd ff       	callq  400e20 <printf@plt>
  4230bb:	bf 01 00 00 00       	mov    $0x1,%edi
  4230c0:	e8 cb dd fd ff       	callq  400e90 <exit@plt>
  4230c5:	48 89 c2             	mov    %rax,%rdx
  4230c8:	be 0a 00 00 00       	mov    $0xa,%esi
  4230cd:	48 8d bc 24 a0 00 00 	lea    0xa0(%rsp),%rdi
  4230d4:	00 
  4230d5:	e8 36 de fd ff       	callq  400f10 <fgets@plt>
  4230da:	48 85 c0             	test   %rax,%rax
  4230dd:	75 1c                	jne    4230fb <checkhash+0xe7>
  4230df:	48 8d b4 24 b0 00 00 	lea    0xb0(%rsp),%rsi
  4230e6:	00 
  4230e7:	bf c0 3c 42 00       	mov    $0x423cc0,%edi
  4230ec:	e8 2f dd fd ff       	callq  400e20 <printf@plt>
  4230f1:	bf 01 00 00 00       	mov    $0x1,%edi
  4230f6:	e8 95 dd fd ff       	callq  400e90 <exit@plt>
  4230fb:	48 8d bc 24 a0 00 00 	lea    0xa0(%rsp),%rdi
  423102:	00 
  423103:	b8 00 00 00 00       	mov    $0x0,%eax
  423108:	48 c7 c1 ff ff ff ff 	mov    $0xffffffffffffffff,%rcx
  42310f:	f2 ae                	repnz scas %es:(%rdi),%al
  423111:	48 f7 d1             	not    %rcx
  423114:	48 83 e9 02          	sub    $0x2,%rcx
  423118:	80 bc 0c a0 00 00 00 	cmpb   $0xa,0xa0(%rsp,%rcx,1)
  42311f:	0a 
  423120:	75 08                	jne    42312a <checkhash+0x116>
  423122:	c6 84 0c a0 00 00 00 	movb   $0x0,0xa0(%rsp,%rcx,1)
  423129:	00 
  42312a:	48 89 da             	mov    %rbx,%rdx
  42312d:	be 21 00 00 00       	mov    $0x21,%esi
  423132:	48 89 e7             	mov    %rsp,%rdi
  423135:	e8 d6 dd fd ff       	callq  400f10 <fgets@plt>
  42313a:	48 85 c0             	test   %rax,%rax
  42313d:	75 1c                	jne    42315b <checkhash+0x147>
  42313f:	48 8d b4 24 b0 00 00 	lea    0xb0(%rsp),%rsi
  423146:	00 
  423147:	bf e8 3c 42 00       	mov    $0x423ce8,%edi
  42314c:	e8 cf dc fd ff       	callq  400e20 <printf@plt>
  423151:	bf 01 00 00 00       	mov    $0x1,%edi
  423156:	e8 35 dd fd ff       	callq  400e90 <exit@plt>
  42315b:	48 89 e7             	mov    %rsp,%rdi
  42315e:	b8 00 00 00 00       	mov    $0x0,%eax
  423163:	48 c7 c1 ff ff ff ff 	mov    $0xffffffffffffffff,%rcx
  42316a:	f2 ae                	repnz scas %es:(%rdi),%al
  42316c:	48 f7 d1             	not    %rcx
  42316f:	48 83 e9 02          	sub    $0x2,%rcx
  423173:	80 3c 0c 0a          	cmpb   $0xa,(%rsp,%rcx,1)
  423177:	75 04                	jne    42317d <checkhash+0x169>
  423179:	c6 04 0c 00          	movb   $0x0,(%rsp,%rcx,1)
  42317d:	c6 44 24 60 00       	movb   $0x0,0x60(%rsp)
  423182:	48 8d b4 24 e0 00 00 	lea    0xe0(%rsp),%rsi
  423189:	00 
  42318a:	48 8d 7c 24 60       	lea    0x60(%rsp),%rdi
  42318f:	e8 bc dd fd ff       	callq  400f50 <strcat@plt>
  423194:	48 8d b4 24 d0 00 00 	lea    0xd0(%rsp),%rsi
  42319b:	00 
  42319c:	48 8d 7c 24 60       	lea    0x60(%rsp),%rdi
  4231a1:	e8 aa dd fd ff       	callq  400f50 <strcat@plt>
  4231a6:	48 8d b4 24 a0 00 00 	lea    0xa0(%rsp),%rsi
  4231ad:	00 
  4231ae:	48 8d 7c 24 60       	lea    0x60(%rsp),%rdi
  4231b3:	e8 98 dd fd ff       	callq  400f50 <strcat@plt>
  4231b8:	48 8d b4 24 c0 00 00 	lea    0xc0(%rsp),%rsi
  4231bf:	00 
  4231c0:	48 8d 7c 24 60       	lea    0x60(%rsp),%rdi
  4231c5:	e8 86 dd fd ff       	callq  400f50 <strcat@plt>
  4231ca:	48 8d 7c 24 60       	lea    0x60(%rsp),%rdi
  4231cf:	b8 00 00 00 00       	mov    $0x0,%eax
  4231d4:	48 c7 c1 ff ff ff ff 	mov    $0xffffffffffffffff,%rcx
  4231db:	f2 ae                	repnz scas %es:(%rdi),%al
  4231dd:	48 f7 d1             	not    %rcx
  4231e0:	48 8d 71 ff          	lea    -0x1(%rcx),%rsi
  4231e4:	48 8d 94 24 90 00 00 	lea    0x90(%rsp),%rdx
  4231eb:	00 
  4231ec:	48 8d 7c 24 60       	lea    0x60(%rsp),%rdi
  4231f1:	e8 1a dc fd ff       	callq  400e10 <MD5@plt>
  4231f6:	bb 00 00 00 00       	mov    $0x0,%ebx
  4231fb:	eb 43                	jmp    423240 <checkhash+0x22c>
  4231fd:	48 63 c3             	movslq %ebx,%rax
  423200:	8d 3c 1b             	lea    (%rbx,%rbx,1),%edi
  423203:	0f b6 94 04 90 00 00 	movzbl 0x90(%rsp,%rax,1),%edx
  42320a:	00 
  42320b:	48 63 ff             	movslq %edi,%rdi
  42320e:	48 8d 44 24 30       	lea    0x30(%rsp),%rax
  423213:	48 01 c7             	add    %rax,%rdi
  423216:	be 80 3c 42 00       	mov    $0x423c80,%esi
  42321b:	b8 00 00 00 00       	mov    $0x0,%eax
  423220:	e8 1b dd fd ff       	callq  400f40 <sprintf@plt>
  423225:	85 c0                	test   %eax,%eax
  423227:	79 14                	jns    42323d <checkhash+0x229>
  423229:	bf 10 3d 42 00       	mov    $0x423d10,%edi
  42322e:	e8 3d dc fd ff       	callq  400e70 <puts@plt>
  423233:	bf 01 00 00 00       	mov    $0x1,%edi
  423238:	e8 53 dc fd ff       	callq  400e90 <exit@plt>
  42323d:	83 c3 01             	add    $0x1,%ebx
  423240:	83 fb 0f             	cmp    $0xf,%ebx
  423243:	76 b8                	jbe    4231fd <checkhash+0x1e9>
  423245:	48 89 e6             	mov    %rsp,%rsi
  423248:	48 8d 7c 24 30       	lea    0x30(%rsp),%rdi
  42324d:	e8 7e dd fd ff       	callq  400fd0 <strcmp@plt>
  423252:	85 c0                	test   %eax,%eax
  423254:	75 04                	jne    42325a <checkhash+0x246>
  423256:	b0 01                	mov    $0x1,%al
  423258:	eb 05                	jmp    42325f <checkhash+0x24b>
  42325a:	b8 00 00 00 00       	mov    $0x0,%eax
  42325f:	48 81 c4 f0 00 00 00 	add    $0xf0,%rsp
  423266:	5b                   	pop    %rbx
  423267:	c3                   	retq   
  423268:	0f 1f 84 00 00 00 00 	nopl   0x0(%rax,%rax,1)
  42326f:	00 

0000000000423270 <__libc_csu_init>:
  423270:	41 57                	push   %r15
  423272:	41 89 ff             	mov    %edi,%r15d
  423275:	41 56                	push   %r14
  423277:	49 89 f6             	mov    %rsi,%r14
  42327a:	41 55                	push   %r13
  42327c:	49 89 d5             	mov    %rdx,%r13
  42327f:	41 54                	push   %r12
  423281:	4c 8d 25 68 1b 20 00 	lea    0x201b68(%rip),%r12        # 624df0 <__frame_dummy_init_array_entry>
  423288:	55                   	push   %rbp
  423289:	48 8d 2d 68 1b 20 00 	lea    0x201b68(%rip),%rbp        # 624df8 <__init_array_end>
  423290:	53                   	push   %rbx
  423291:	4c 29 e5             	sub    %r12,%rbp
  423294:	31 db                	xor    %ebx,%ebx
  423296:	48 c1 fd 03          	sar    $0x3,%rbp
  42329a:	48 83 ec 08          	sub    $0x8,%rsp
  42329e:	e8 35 db fd ff       	callq  400dd8 <_init>
  4232a3:	48 85 ed             	test   %rbp,%rbp
  4232a6:	74 1e                	je     4232c6 <__libc_csu_init+0x56>
  4232a8:	0f 1f 84 00 00 00 00 	nopl   0x0(%rax,%rax,1)
  4232af:	00 
  4232b0:	4c 89 ea             	mov    %r13,%rdx
  4232b3:	4c 89 f6             	mov    %r14,%rsi
  4232b6:	44 89 ff             	mov    %r15d,%edi
  4232b9:	41 ff 14 dc          	callq  *(%r12,%rbx,8)
  4232bd:	48 83 c3 01          	add    $0x1,%rbx
  4232c1:	48 39 eb             	cmp    %rbp,%rbx
  4232c4:	75 ea                	jne    4232b0 <__libc_csu_init+0x40>
  4232c6:	48 83 c4 08          	add    $0x8,%rsp
  4232ca:	5b                   	pop    %rbx
  4232cb:	5d                   	pop    %rbp
  4232cc:	41 5c                	pop    %r12
  4232ce:	41 5d                	pop    %r13
  4232d0:	41 5e                	pop    %r14
  4232d2:	41 5f                	pop    %r15
  4232d4:	c3                   	retq   
  4232d5:	90                   	nop
  4232d6:	66 2e 0f 1f 84 00 00 	nopw   %cs:0x0(%rax,%rax,1)
  4232dd:	00 00 00 

00000000004232e0 <__libc_csu_fini>:
  4232e0:	f3 c3                	repz retq 

Disassembly of section .init:

0000000000400dd8 <_init>:
  400dd8:	48 83 ec 08          	sub    $0x8,%rsp
  400ddc:	48 8b 05 15 42 22 00 	mov    0x224215(%rip),%rax        # 624ff8 <__gmon_start__>
  400de3:	48 85 c0             	test   %rax,%rax
  400de6:	74 05                	je     400ded <_init+0x15>
  400de8:	e8 73 00 00 00       	callq  400e60 <__gmon_start__@plt>
  400ded:	48 83 c4 08          	add    $0x8,%rsp
  400df1:	c3                   	retq   

Disassembly of section .plt:

0000000000400e00 <.plt>:
  400e00:	ff 35 02 42 22 00    	pushq  0x224202(%rip)        # 625008 <_GLOBAL_OFFSET_TABLE_+0x8>
  400e06:	ff 25 04 42 22 00    	jmpq   *0x224204(%rip)        # 625010 <_GLOBAL_OFFSET_TABLE_+0x10>
  400e0c:	0f 1f 40 00          	nopl   0x0(%rax)

0000000000400e10 <MD5@plt>:
  400e10:	ff 25 02 42 22 00    	jmpq   *0x224202(%rip)        # 625018 <MD5@libcrypto.so.10>
  400e16:	68 00 00 00 00       	pushq  $0x0
  400e1b:	e9 e0 ff ff ff       	jmpq   400e00 <.plt>

0000000000400e20 <printf@plt>:
  400e20:	ff 25 fa 41 22 00    	jmpq   *0x2241fa(%rip)        # 625020 <printf@GLIBC_2.2.5>
  400e26:	68 01 00 00 00       	pushq  $0x1
  400e2b:	e9 d0 ff ff ff       	jmpq   400e00 <.plt>

0000000000400e30 <memset@plt>:
  400e30:	ff 25 f2 41 22 00    	jmpq   *0x2241f2(%rip)        # 625028 <memset@GLIBC_2.2.5>
  400e36:	68 02 00 00 00       	pushq  $0x2
  400e3b:	e9 c0 ff ff ff       	jmpq   400e00 <.plt>

0000000000400e40 <close@plt>:
  400e40:	ff 25 ea 41 22 00    	jmpq   *0x2241ea(%rip)        # 625030 <close@GLIBC_2.2.5>
  400e46:	68 03 00 00 00       	pushq  $0x3
  400e4b:	e9 b0 ff ff ff       	jmpq   400e00 <.plt>

0000000000400e50 <gethostbyname@plt>:
  400e50:	ff 25 e2 41 22 00    	jmpq   *0x2241e2(%rip)        # 625038 <gethostbyname@GLIBC_2.2.5>
  400e56:	68 04 00 00 00       	pushq  $0x4
  400e5b:	e9 a0 ff ff ff       	jmpq   400e00 <.plt>

0000000000400e60 <__gmon_start__@plt>:
  400e60:	ff 25 da 41 22 00    	jmpq   *0x2241da(%rip)        # 625040 <__gmon_start__>
  400e66:	68 05 00 00 00       	pushq  $0x5
  400e6b:	e9 90 ff ff ff       	jmpq   400e00 <.plt>

0000000000400e70 <puts@plt>:
  400e70:	ff 25 d2 41 22 00    	jmpq   *0x2241d2(%rip)        # 625048 <puts@GLIBC_2.2.5>
  400e76:	68 06 00 00 00       	pushq  $0x6
  400e7b:	e9 80 ff ff ff       	jmpq   400e00 <.plt>

0000000000400e80 <__isoc99_sscanf@plt>:
  400e80:	ff 25 ca 41 22 00    	jmpq   *0x2241ca(%rip)        # 625050 <__isoc99_sscanf@GLIBC_2.7>
  400e86:	68 07 00 00 00       	pushq  $0x7
  400e8b:	e9 70 ff ff ff       	jmpq   400e00 <.plt>

0000000000400e90 <exit@plt>:
  400e90:	ff 25 c2 41 22 00    	jmpq   *0x2241c2(%rip)        # 625058 <exit@GLIBC_2.2.5>
  400e96:	68 08 00 00 00       	pushq  $0x8
  400e9b:	e9 60 ff ff ff       	jmpq   400e00 <.plt>

0000000000400ea0 <strcasecmp@plt>:
  400ea0:	ff 25 ba 41 22 00    	jmpq   *0x2241ba(%rip)        # 625060 <strcasecmp@GLIBC_2.2.5>
  400ea6:	68 09 00 00 00       	pushq  $0x9
  400eab:	e9 50 ff ff ff       	jmpq   400e00 <.plt>

0000000000400eb0 <getopt@plt>:
  400eb0:	ff 25 b2 41 22 00    	jmpq   *0x2241b2(%rip)        # 625068 <getopt@GLIBC_2.2.5>
  400eb6:	68 0a 00 00 00       	pushq  $0xa
  400ebb:	e9 40 ff ff ff       	jmpq   400e00 <.plt>

0000000000400ec0 <read@plt>:
  400ec0:	ff 25 aa 41 22 00    	jmpq   *0x2241aa(%rip)        # 625070 <read@GLIBC_2.2.5>
  400ec6:	68 0b 00 00 00       	pushq  $0xb
  400ecb:	e9 30 ff ff ff       	jmpq   400e00 <.plt>

0000000000400ed0 <strncmp@plt>:
  400ed0:	ff 25 a2 41 22 00    	jmpq   *0x2241a2(%rip)        # 625078 <strncmp@GLIBC_2.2.5>
  400ed6:	68 0c 00 00 00       	pushq  $0xc
  400edb:	e9 20 ff ff ff       	jmpq   400e00 <.plt>

0000000000400ee0 <fopen@plt>:
  400ee0:	ff 25 9a 41 22 00    	jmpq   *0x22419a(%rip)        # 625080 <fopen@GLIBC_2.2.5>
  400ee6:	68 0d 00 00 00       	pushq  $0xd
  400eeb:	e9 10 ff ff ff       	jmpq   400e00 <.plt>

0000000000400ef0 <__libc_start_main@plt>:
  400ef0:	ff 25 92 41 22 00    	jmpq   *0x224192(%rip)        # 625088 <__libc_start_main@GLIBC_2.2.5>
  400ef6:	68 0e 00 00 00       	pushq  $0xe
  400efb:	e9 00 ff ff ff       	jmpq   400e00 <.plt>

0000000000400f00 <srandom@plt>:
  400f00:	ff 25 8a 41 22 00    	jmpq   *0x22418a(%rip)        # 625090 <srandom@GLIBC_2.2.5>
  400f06:	68 0f 00 00 00       	pushq  $0xf
  400f0b:	e9 f0 fe ff ff       	jmpq   400e00 <.plt>

0000000000400f10 <fgets@plt>:
  400f10:	ff 25 82 41 22 00    	jmpq   *0x224182(%rip)        # 625098 <fgets@GLIBC_2.2.5>
  400f16:	68 10 00 00 00       	pushq  $0x10
  400f1b:	e9 e0 fe ff ff       	jmpq   400e00 <.plt>

0000000000400f20 <_IO_getc@plt>:
  400f20:	ff 25 7a 41 22 00    	jmpq   *0x22417a(%rip)        # 6250a0 <_IO_getc@GLIBC_2.2.5>
  400f26:	68 11 00 00 00       	pushq  $0x11
  400f2b:	e9 d0 fe ff ff       	jmpq   400e00 <.plt>

0000000000400f30 <bcopy@plt>:
  400f30:	ff 25 72 41 22 00    	jmpq   *0x224172(%rip)        # 6250a8 <bcopy@GLIBC_2.2.5>
  400f36:	68 12 00 00 00       	pushq  $0x12
  400f3b:	e9 c0 fe ff ff       	jmpq   400e00 <.plt>

0000000000400f40 <sprintf@plt>:
  400f40:	ff 25 6a 41 22 00    	jmpq   *0x22416a(%rip)        # 6250b0 <sprintf@GLIBC_2.2.5>
  400f46:	68 13 00 00 00       	pushq  $0x13
  400f4b:	e9 b0 fe ff ff       	jmpq   400e00 <.plt>

0000000000400f50 <strcat@plt>:
  400f50:	ff 25 62 41 22 00    	jmpq   *0x224162(%rip)        # 6250b8 <strcat@GLIBC_2.2.5>
  400f56:	68 14 00 00 00       	pushq  $0x14
  400f5b:	e9 a0 fe ff ff       	jmpq   400e00 <.plt>

0000000000400f60 <strtol@plt>:
  400f60:	ff 25 5a 41 22 00    	jmpq   *0x22415a(%rip)        # 6250c0 <strtol@GLIBC_2.2.5>
  400f66:	68 15 00 00 00       	pushq  $0x15
  400f6b:	e9 90 fe ff ff       	jmpq   400e00 <.plt>

0000000000400f70 <connect@plt>:
  400f70:	ff 25 52 41 22 00    	jmpq   *0x224152(%rip)        # 6250c8 <connect@GLIBC_2.2.5>
  400f76:	68 16 00 00 00       	pushq  $0x16
  400f7b:	e9 80 fe ff ff       	jmpq   400e00 <.plt>

0000000000400f80 <gethostname@plt>:
  400f80:	ff 25 4a 41 22 00    	jmpq   *0x22414a(%rip)        # 6250d0 <gethostname@GLIBC_2.2.5>
  400f86:	68 17 00 00 00       	pushq  $0x17
  400f8b:	e9 70 fe ff ff       	jmpq   400e00 <.plt>

0000000000400f90 <signal@plt>:
  400f90:	ff 25 42 41 22 00    	jmpq   *0x224142(%rip)        # 6250d8 <signal@GLIBC_2.2.5>
  400f96:	68 18 00 00 00       	pushq  $0x18
  400f9b:	e9 60 fe ff ff       	jmpq   400e00 <.plt>

0000000000400fa0 <socket@plt>:
  400fa0:	ff 25 3a 41 22 00    	jmpq   *0x22413a(%rip)        # 6250e0 <socket@GLIBC_2.2.5>
  400fa6:	68 19 00 00 00       	pushq  $0x19
  400fab:	e9 50 fe ff ff       	jmpq   400e00 <.plt>

0000000000400fb0 <alarm@plt>:
  400fb0:	ff 25 32 41 22 00    	jmpq   *0x224132(%rip)        # 6250e8 <alarm@GLIBC_2.2.5>
  400fb6:	68 1a 00 00 00       	pushq  $0x1a
  400fbb:	e9 40 fe ff ff       	jmpq   400e00 <.plt>

0000000000400fc0 <__errno_location@plt>:
  400fc0:	ff 25 2a 41 22 00    	jmpq   *0x22412a(%rip)        # 6250f0 <__errno_location@GLIBC_2.2.5>
  400fc6:	68 1b 00 00 00       	pushq  $0x1b
  400fcb:	e9 30 fe ff ff       	jmpq   400e00 <.plt>

0000000000400fd0 <strcmp@plt>:
  400fd0:	ff 25 22 41 22 00    	jmpq   *0x224122(%rip)        # 6250f8 <strcmp@GLIBC_2.2.5>
  400fd6:	68 1c 00 00 00       	pushq  $0x1c
  400fdb:	e9 20 fe ff ff       	jmpq   400e00 <.plt>

0000000000400fe0 <strcpy@plt>:
  400fe0:	ff 25 1a 41 22 00    	jmpq   *0x22411a(%rip)        # 625100 <strcpy@GLIBC_2.2.5>
  400fe6:	68 1d 00 00 00       	pushq  $0x1d
  400feb:	e9 10 fe ff ff       	jmpq   400e00 <.plt>

0000000000400ff0 <munmap@plt>:
  400ff0:	ff 25 12 41 22 00    	jmpq   *0x224112(%rip)        # 625108 <munmap@GLIBC_2.2.5>
  400ff6:	68 1e 00 00 00       	pushq  $0x1e
  400ffb:	e9 00 fe ff ff       	jmpq   400e00 <.plt>

0000000000401000 <random@plt>:
  401000:	ff 25 0a 41 22 00    	jmpq   *0x22410a(%rip)        # 625110 <random@GLIBC_2.2.5>
  401006:	68 1f 00 00 00       	pushq  $0x1f
  40100b:	e9 f0 fd ff ff       	jmpq   400e00 <.plt>

0000000000401010 <fprintf@plt>:
  401010:	ff 25 02 41 22 00    	jmpq   *0x224102(%rip)        # 625118 <fprintf@GLIBC_2.2.5>
  401016:	68 20 00 00 00       	pushq  $0x20
  40101b:	e9 e0 fd ff ff       	jmpq   400e00 <.plt>

0000000000401020 <write@plt>:
  401020:	ff 25 fa 40 22 00    	jmpq   *0x2240fa(%rip)        # 625120 <write@GLIBC_2.2.5>
  401026:	68 21 00 00 00       	pushq  $0x21
  40102b:	e9 d0 fd ff ff       	jmpq   400e00 <.plt>

0000000000401030 <strtoul@plt>:
  401030:	ff 25 f2 40 22 00    	jmpq   *0x2240f2(%rip)        # 625128 <strtoul@GLIBC_2.2.5>
  401036:	68 22 00 00 00       	pushq  $0x22
  40103b:	e9 c0 fd ff ff       	jmpq   400e00 <.plt>

0000000000401040 <memcpy@plt>:
  401040:	ff 25 ea 40 22 00    	jmpq   *0x2240ea(%rip)        # 625130 <memcpy@GLIBC_2.14>
  401046:	68 23 00 00 00       	pushq  $0x23
  40104b:	e9 b0 fd ff ff       	jmpq   400e00 <.plt>

0000000000401050 <mmap@plt>:
  401050:	ff 25 e2 40 22 00    	jmpq   *0x2240e2(%rip)        # 625138 <mmap@GLIBC_2.2.5>
  401056:	68 24 00 00 00       	pushq  $0x24
  40105b:	e9 a0 fd ff ff       	jmpq   400e00 <.plt>

0000000000401060 <time@plt>:
  401060:	ff 25 da 40 22 00    	jmpq   *0x2240da(%rip)        # 625140 <time@GLIBC_2.2.5>
  401066:	68 25 00 00 00       	pushq  $0x25
  40106b:	e9 90 fd ff ff       	jmpq   400e00 <.plt>

Disassembly of section .fini:

00000000004232e4 <_fini>:
  4232e4:	48 83 ec 08          	sub    $0x8,%rsp
  4232e8:	48 83 c4 08          	add    $0x8,%rsp
  4232ec:	c3                   	retq   
